Archive member included because of file (symbol)

e:/asctec_arm_sdk/winarm/bin/../lib/gcc/arm-elf/4.1.1/../../../../arm-elf/lib/thumb/interwork\libc.a(memcpy.o)
                              LL_HL_comm.o (memcpy)
e:/asctec_arm_sdk/winarm/bin/../lib/gcc/arm-elf/4.1.1/../../../../arm-elf/lib/thumb/interwork\libc.a(printf.o)
                              i2c.o (printf)
e:/asctec_arm_sdk/winarm/bin/../lib/gcc/arm-elf/4.1.1/../../../../arm-elf/lib/thumb/interwork\libc.a(puts.o)
                              i2c.o (puts)
e:/asctec_arm_sdk/winarm/bin/../lib/gcc/arm-elf/4.1.1/../../../../arm-elf/lib/thumb/interwork\libc.a(sprintf.o)
                              sdk_telemetry.o (sprintf)
e:/asctec_arm_sdk/winarm/bin/../lib/gcc/arm-elf/4.1.1/../../../../arm-elf/lib/thumb/interwork\libc.a(strcpy.o)
                              asctecCommIntfOnboard.o (strcpy)
e:/asctec_arm_sdk/winarm/bin/../lib/gcc/arm-elf/4.1.1/../../../../arm-elf/lib/thumb/interwork\libc.a(strlen.o)
                              asctecCommIntfOnboard.o (strlen)
e:/asctec_arm_sdk/winarm/bin/../lib/gcc/arm-elf/4.1.1/../../../../arm-elf/lib/thumb/interwork\libc.a(vfprintf.o)
                              e:/asctec_arm_sdk/winarm/bin/../lib/gcc/arm-elf/4.1.1/../../../../arm-elf/lib/thumb/interwork\libc.a(printf.o) (_vfprintf_r)
e:/asctec_arm_sdk/winarm/bin/../lib/gcc/arm-elf/4.1.1/../../../../arm-elf/lib/thumb/interwork\libc.a(wcrtomb.o)
                              e:/asctec_arm_sdk/winarm/bin/../lib/gcc/arm-elf/4.1.1/../../../../arm-elf/lib/thumb/interwork\libc.a(vfprintf.o) (_wcrtomb_r)
e:/asctec_arm_sdk/winarm/bin/../lib/gcc/arm-elf/4.1.1/../../../../arm-elf/lib/thumb/interwork\libc.a(wcsrtombs.o)
                              e:/asctec_arm_sdk/winarm/bin/../lib/gcc/arm-elf/4.1.1/../../../../arm-elf/lib/thumb/interwork\libc.a(vfprintf.o) (_wcsrtombs_r)
e:/asctec_arm_sdk/winarm/bin/../lib/gcc/arm-elf/4.1.1/../../../../arm-elf/lib/thumb/interwork\libc.a(wctomb_r.o)
                              e:/asctec_arm_sdk/winarm/bin/../lib/gcc/arm-elf/4.1.1/../../../../arm-elf/lib/thumb/interwork\libc.a(wcrtomb.o) (_wctomb_r)
e:/asctec_arm_sdk/winarm/bin/../lib/gcc/arm-elf/4.1.1/../../../../arm-elf/lib/thumb/interwork\libc.a(wsetup.o)
                              e:/asctec_arm_sdk/winarm/bin/../lib/gcc/arm-elf/4.1.1/../../../../arm-elf/lib/thumb/interwork\libc.a(vfprintf.o) (__swsetup)
e:/asctec_arm_sdk/winarm/bin/../lib/gcc/arm-elf/4.1.1/../../../../arm-elf/lib/thumb/interwork\libc.a(dtoa.o)
                              e:/asctec_arm_sdk/winarm/bin/../lib/gcc/arm-elf/4.1.1/../../../../arm-elf/lib/thumb/interwork\libc.a(vfprintf.o) (_dtoa_r)
e:/asctec_arm_sdk/winarm/bin/../lib/gcc/arm-elf/4.1.1/../../../../arm-elf/lib/thumb/interwork\libc.a(fflush.o)
                              e:/asctec_arm_sdk/winarm/bin/../lib/gcc/arm-elf/4.1.1/../../../../arm-elf/lib/thumb/interwork\libc.a(vfprintf.o) (fflush)
e:/asctec_arm_sdk/winarm/bin/../lib/gcc/arm-elf/4.1.1/../../../../arm-elf/lib/thumb/interwork\libc.a(findfp.o)
                              e:/asctec_arm_sdk/winarm/bin/../lib/gcc/arm-elf/4.1.1/../../../../arm-elf/lib/thumb/interwork\libc.a(vfprintf.o) (__sinit)
e:/asctec_arm_sdk/winarm/bin/../lib/gcc/arm-elf/4.1.1/../../../../arm-elf/lib/thumb/interwork\libc.a(freer.o)
                              e:/asctec_arm_sdk/winarm/bin/../lib/gcc/arm-elf/4.1.1/../../../../arm-elf/lib/thumb/interwork\libc.a(vfprintf.o) (_free_r)
e:/asctec_arm_sdk/winarm/bin/../lib/gcc/arm-elf/4.1.1/../../../../arm-elf/lib/thumb/interwork\libc.a(fvwrite.o)
                              e:/asctec_arm_sdk/winarm/bin/../lib/gcc/arm-elf/4.1.1/../../../../arm-elf/lib/thumb/interwork\libc.a(puts.o) (__sfvwrite)
e:/asctec_arm_sdk/winarm/bin/../lib/gcc/arm-elf/4.1.1/../../../../arm-elf/lib/thumb/interwork\libc.a(fwalk.o)
                              e:/asctec_arm_sdk/winarm/bin/../lib/gcc/arm-elf/4.1.1/../../../../arm-elf/lib/thumb/interwork\libc.a(fflush.o) (_fwalk)
e:/asctec_arm_sdk/winarm/bin/../lib/gcc/arm-elf/4.1.1/../../../../arm-elf/lib/thumb/interwork\libc.a(impure.o)
                              e:/asctec_arm_sdk/winarm/bin/../lib/gcc/arm-elf/4.1.1/../../../../arm-elf/lib/thumb/interwork\libc.a(printf.o) (_impure_ptr)
e:/asctec_arm_sdk/winarm/bin/../lib/gcc/arm-elf/4.1.1/../../../../arm-elf/lib/thumb/interwork\libc.a(locale.o)
                              e:/asctec_arm_sdk/winarm/bin/../lib/gcc/arm-elf/4.1.1/../../../../arm-elf/lib/thumb/interwork\libc.a(vfprintf.o) (localeconv)
e:/asctec_arm_sdk/winarm/bin/../lib/gcc/arm-elf/4.1.1/../../../../arm-elf/lib/thumb/interwork\libc.a(makebuf.o)
                              e:/asctec_arm_sdk/winarm/bin/../lib/gcc/arm-elf/4.1.1/../../../../arm-elf/lib/thumb/interwork\libc.a(wsetup.o) (__smakebuf)
e:/asctec_arm_sdk/winarm/bin/../lib/gcc/arm-elf/4.1.1/../../../../arm-elf/lib/thumb/interwork\libc.a(mallocr.o)
                              e:/asctec_arm_sdk/winarm/bin/../lib/gcc/arm-elf/4.1.1/../../../../arm-elf/lib/thumb/interwork\libc.a(vfprintf.o) (_malloc_r)
e:/asctec_arm_sdk/winarm/bin/../lib/gcc/arm-elf/4.1.1/../../../../arm-elf/lib/thumb/interwork\libc.a(memchr.o)
                              e:/asctec_arm_sdk/winarm/bin/../lib/gcc/arm-elf/4.1.1/../../../../arm-elf/lib/thumb/interwork\libc.a(vfprintf.o) (memchr)
e:/asctec_arm_sdk/winarm/bin/../lib/gcc/arm-elf/4.1.1/../../../../arm-elf/lib/thumb/interwork\libc.a(memmove.o)
                              e:/asctec_arm_sdk/winarm/bin/../lib/gcc/arm-elf/4.1.1/../../../../arm-elf/lib/thumb/interwork\libc.a(fvwrite.o) (memmove)
e:/asctec_arm_sdk/winarm/bin/../lib/gcc/arm-elf/4.1.1/../../../../arm-elf/lib/thumb/interwork\libc.a(memset.o)
                              e:/asctec_arm_sdk/winarm/bin/../lib/gcc/arm-elf/4.1.1/../../../../arm-elf/lib/thumb/interwork\libc.a(vfprintf.o) (memset)
e:/asctec_arm_sdk/winarm/bin/../lib/gcc/arm-elf/4.1.1/../../../../arm-elf/lib/thumb/interwork\libc.a(mlock.o)
                              e:/asctec_arm_sdk/winarm/bin/../lib/gcc/arm-elf/4.1.1/../../../../arm-elf/lib/thumb/interwork\libc.a(freer.o) (__malloc_lock)
e:/asctec_arm_sdk/winarm/bin/../lib/gcc/arm-elf/4.1.1/../../../../arm-elf/lib/thumb/interwork\libc.a(mprec.o)
                              e:/asctec_arm_sdk/winarm/bin/../lib/gcc/arm-elf/4.1.1/../../../../arm-elf/lib/thumb/interwork\libc.a(dtoa.o) (_Bfree)
e:/asctec_arm_sdk/winarm/bin/../lib/gcc/arm-elf/4.1.1/../../../../arm-elf/lib/thumb/interwork\libc.a(reallocr.o)
                              e:/asctec_arm_sdk/winarm/bin/../lib/gcc/arm-elf/4.1.1/../../../../arm-elf/lib/thumb/interwork\libc.a(fvwrite.o) (_realloc_r)
e:/asctec_arm_sdk/winarm/bin/../lib/gcc/arm-elf/4.1.1/../../../../arm-elf/lib/thumb/interwork\libc.a(s_isinf.o)
                              e:/asctec_arm_sdk/winarm/bin/../lib/gcc/arm-elf/4.1.1/../../../../arm-elf/lib/thumb/interwork\libc.a(vfprintf.o) (isinf)
e:/asctec_arm_sdk/winarm/bin/../lib/gcc/arm-elf/4.1.1/../../../../arm-elf/lib/thumb/interwork\libc.a(s_isnan.o)
                              e:/asctec_arm_sdk/winarm/bin/../lib/gcc/arm-elf/4.1.1/../../../../arm-elf/lib/thumb/interwork\libc.a(vfprintf.o) (isnan)
e:/asctec_arm_sdk/winarm/bin/../lib/gcc/arm-elf/4.1.1/../../../../arm-elf/lib/thumb/interwork\libc.a(stdio.o)
                              e:/asctec_arm_sdk/winarm/bin/../lib/gcc/arm-elf/4.1.1/../../../../arm-elf/lib/thumb/interwork\libc.a(findfp.o) (__sclose)
e:/asctec_arm_sdk/winarm/bin/../lib/gcc/arm-elf/4.1.1/../../../../arm-elf/lib/thumb/interwork\libc.a(strcmp.o)
                              e:/asctec_arm_sdk/winarm/bin/../lib/gcc/arm-elf/4.1.1/../../../../arm-elf/lib/thumb/interwork\libc.a(wctomb_r.o) (strcmp)
e:/asctec_arm_sdk/winarm/bin/../lib/gcc/arm-elf/4.1.1/../../../../arm-elf/lib/thumb/interwork\libc.a(callocr.o)
                              e:/asctec_arm_sdk/winarm/bin/../lib/gcc/arm-elf/4.1.1/../../../../arm-elf/lib/thumb/interwork\libc.a(mprec.o) (_calloc_r)
e:/asctec_arm_sdk/winarm/bin/../lib/gcc/arm-elf/4.1.1/../../../../arm-elf/lib/thumb/interwork\libc.a(fclose.o)
                              e:/asctec_arm_sdk/winarm/bin/../lib/gcc/arm-elf/4.1.1/../../../../arm-elf/lib/thumb/interwork\libc.a(findfp.o) (fclose)
e:/asctec_arm_sdk/winarm/bin/../lib/gcc/arm-elf/4.1.1/thumb/interwork\libgcc.a(_udivsi3.o)
                              buzzer.o (__udivsi3)
e:/asctec_arm_sdk/winarm/bin/../lib/gcc/arm-elf/4.1.1/thumb/interwork\libgcc.a(_divsi3.o)
                              mymath.o (__divsi3)
e:/asctec_arm_sdk/winarm/bin/../lib/gcc/arm-elf/4.1.1/thumb/interwork\libgcc.a(_umodsi3.o)
                              e:/asctec_arm_sdk/winarm/bin/../lib/gcc/arm-elf/4.1.1/../../../../arm-elf/lib/thumb/interwork\libc.a(vfprintf.o) (__umodsi3)
e:/asctec_arm_sdk/winarm/bin/../lib/gcc/arm-elf/4.1.1/thumb/interwork\libgcc.a(_modsi3.o)
                              e:/asctec_arm_sdk/winarm/bin/../lib/gcc/arm-elf/4.1.1/../../../../arm-elf/lib/thumb/interwork\libc.a(vfprintf.o) (__modsi3)
e:/asctec_arm_sdk/winarm/bin/../lib/gcc/arm-elf/4.1.1/thumb/interwork\libgcc.a(_dvmd_tls.o)
                              e:/asctec_arm_sdk/winarm/bin/../lib/gcc/arm-elf/4.1.1/thumb/interwork\libgcc.a(_udivsi3.o) (__div0)
e:/asctec_arm_sdk/winarm/bin/../lib/gcc/arm-elf/4.1.1/thumb/interwork\libgcc.a(_addsubdf3.o)
                              e:/asctec_arm_sdk/winarm/bin/../lib/gcc/arm-elf/4.1.1/../../../../arm-elf/lib/thumb/interwork\libc.a(dtoa.o) (__subdf3)
e:/asctec_arm_sdk/winarm/bin/../lib/gcc/arm-elf/4.1.1/thumb/interwork\libgcc.a(_muldivdf3.o)
                              gpsmath.o (__muldf3)
e:/asctec_arm_sdk/winarm/bin/../lib/gcc/arm-elf/4.1.1/thumb/interwork\libgcc.a(_cmpdf2.o)
                              e:/asctec_arm_sdk/winarm/bin/../lib/gcc/arm-elf/4.1.1/../../../../arm-elf/lib/thumb/interwork\libc.a(dtoa.o) (__gtdf2)
e:/asctec_arm_sdk/winarm/bin/../lib/gcc/arm-elf/4.1.1/thumb/interwork\libgcc.a(_fixdfsi.o)
                              sdk.o (__fixdfsi)
./\libdeclination.a(declination.o)
                              LL_HL_comm.o (estimatedDeclination)
./\libublox.a(ublox.o)        main.o (gpsLEDTrigger)
e:/asctec_arm_sdk/winarm/bin/../lib/gcc/arm-elf/4.1.1/../../../../arm-elf/lib/thumb/interwork\libm.a(s_cos.o)
                              gpsmath.o (cos)
e:/asctec_arm_sdk/winarm/bin/../lib/gcc/arm-elf/4.1.1/../../../../arm-elf/lib/thumb/interwork\libm.a(s_sin.o)
                              ./\libdeclination.a(declination.o) (sin)
e:/asctec_arm_sdk/winarm/bin/../lib/gcc/arm-elf/4.1.1/../../../../arm-elf/lib/thumb/interwork\libm.a(w_atan2.o)
                              ./\libdeclination.a(declination.o) (atan2)
e:/asctec_arm_sdk/winarm/bin/../lib/gcc/arm-elf/4.1.1/../../../../arm-elf/lib/thumb/interwork\libm.a(w_sqrt.o)
                              ./\libdeclination.a(declination.o) (sqrt)
e:/asctec_arm_sdk/winarm/bin/../lib/gcc/arm-elf/4.1.1/../../../../arm-elf/lib/thumb/interwork\libm.a(e_atan2.o)
                              e:/asctec_arm_sdk/winarm/bin/../lib/gcc/arm-elf/4.1.1/../../../../arm-elf/lib/thumb/interwork\libm.a(w_atan2.o) (__ieee754_atan2)
e:/asctec_arm_sdk/winarm/bin/../lib/gcc/arm-elf/4.1.1/../../../../arm-elf/lib/thumb/interwork\libm.a(e_rem_pio2.o)
                              e:/asctec_arm_sdk/winarm/bin/../lib/gcc/arm-elf/4.1.1/../../../../arm-elf/lib/thumb/interwork\libm.a(s_cos.o) (__ieee754_rem_pio2)
e:/asctec_arm_sdk/winarm/bin/../lib/gcc/arm-elf/4.1.1/../../../../arm-elf/lib/thumb/interwork\libm.a(e_sqrt.o)
                              e:/asctec_arm_sdk/winarm/bin/../lib/gcc/arm-elf/4.1.1/../../../../arm-elf/lib/thumb/interwork\libm.a(w_sqrt.o) (__ieee754_sqrt)
e:/asctec_arm_sdk/winarm/bin/../lib/gcc/arm-elf/4.1.1/../../../../arm-elf/lib/thumb/interwork\libm.a(k_cos.o)
                              e:/asctec_arm_sdk/winarm/bin/../lib/gcc/arm-elf/4.1.1/../../../../arm-elf/lib/thumb/interwork\libm.a(s_cos.o) (__kernel_cos)
e:/asctec_arm_sdk/winarm/bin/../lib/gcc/arm-elf/4.1.1/../../../../arm-elf/lib/thumb/interwork\libm.a(k_rem_pio2.o)
                              e:/asctec_arm_sdk/winarm/bin/../lib/gcc/arm-elf/4.1.1/../../../../arm-elf/lib/thumb/interwork\libm.a(e_rem_pio2.o) (__kernel_rem_pio2)
e:/asctec_arm_sdk/winarm/bin/../lib/gcc/arm-elf/4.1.1/../../../../arm-elf/lib/thumb/interwork\libm.a(k_sin.o)
                              e:/asctec_arm_sdk/winarm/bin/../lib/gcc/arm-elf/4.1.1/../../../../arm-elf/lib/thumb/interwork\libm.a(s_cos.o) (__kernel_sin)
e:/asctec_arm_sdk/winarm/bin/../lib/gcc/arm-elf/4.1.1/../../../../arm-elf/lib/thumb/interwork\libm.a(s_atan.o)
                              e:/asctec_arm_sdk/winarm/bin/../lib/gcc/arm-elf/4.1.1/../../../../arm-elf/lib/thumb/interwork\libm.a(e_atan2.o) (atan)
e:/asctec_arm_sdk/winarm/bin/../lib/gcc/arm-elf/4.1.1/../../../../arm-elf/lib/thumb/interwork\libm.a(s_fabs.o)
                              e:/asctec_arm_sdk/winarm/bin/../lib/gcc/arm-elf/4.1.1/../../../../arm-elf/lib/thumb/interwork\libm.a(e_atan2.o) (fabs)
e:/asctec_arm_sdk/winarm/bin/../lib/gcc/arm-elf/4.1.1/../../../../arm-elf/lib/thumb/interwork\libm.a(s_floor.o)
                              e:/asctec_arm_sdk/winarm/bin/../lib/gcc/arm-elf/4.1.1/../../../../arm-elf/lib/thumb/interwork\libm.a(k_rem_pio2.o) (floor)
e:/asctec_arm_sdk/winarm/bin/../lib/gcc/arm-elf/4.1.1/../../../../arm-elf/lib/thumb/interwork\libm.a(s_lib_ver.o)
                              e:/asctec_arm_sdk/winarm/bin/../lib/gcc/arm-elf/4.1.1/../../../../arm-elf/lib/thumb/interwork\libm.a(w_atan2.o) (__fdlib_version)
e:/asctec_arm_sdk/winarm/bin/../lib/gcc/arm-elf/4.1.1/../../../../arm-elf/lib/thumb/interwork\libm.a(s_matherr.o)
                              e:/asctec_arm_sdk/winarm/bin/../lib/gcc/arm-elf/4.1.1/../../../../arm-elf/lib/thumb/interwork\libm.a(w_atan2.o) (matherr)
e:/asctec_arm_sdk/winarm/bin/../lib/gcc/arm-elf/4.1.1/../../../../arm-elf/lib/thumb/interwork\libm.a(s_scalbn.o)
                              e:/asctec_arm_sdk/winarm/bin/../lib/gcc/arm-elf/4.1.1/../../../../arm-elf/lib/thumb/interwork\libm.a(k_rem_pio2.o) (scalbn)
e:/asctec_arm_sdk/winarm/bin/../lib/gcc/arm-elf/4.1.1/../../../../arm-elf/lib/thumb/interwork\libm.a(s_copysign.o)
                              e:/asctec_arm_sdk/winarm/bin/../lib/gcc/arm-elf/4.1.1/../../../../arm-elf/lib/thumb/interwork\libm.a(s_scalbn.o) (copysign)
e:/asctec_arm_sdk/winarm/bin/../lib/gcc/arm-elf/4.1.1/thumb/interwork\libgcc.a(_truncdfsf2.o)
                              ./\libdeclination.a(declination.o) (__truncdfsf2)
e:/asctec_arm_sdk/winarm/bin/../lib/gcc/arm-elf/4.1.1/thumb/interwork\libgcc.a(_addsubsf3.o)
                              ./\libdeclination.a(declination.o) (__subsf3)
e:/asctec_arm_sdk/winarm/bin/../lib/gcc/arm-elf/4.1.1/thumb/interwork\libgcc.a(_muldivsf3.o)
                              ./\libdeclination.a(declination.o) (__mulsf3)
e:/asctec_arm_sdk/winarm/bin/../lib/gcc/arm-elf/4.1.1/thumb/interwork\libgcc.a(_cmpsf2.o)
                              ./\libdeclination.a(declination.o) (__gtsf2)
e:/asctec_arm_sdk/winarm/bin/../lib/gcc/arm-elf/4.1.1/thumb/interwork\libgcc.a(_fixsfsi.o)
                              ./\libdeclination.a(declination.o) (__fixsfsi)
e:/asctec_arm_sdk/winarm/bin/../lib/gcc/arm-elf/4.1.1/../../../../arm-elf/lib/thumb/interwork\libg.a(errno.o)
                              e:/asctec_arm_sdk/winarm/bin/../lib/gcc/arm-elf/4.1.1/../../../../arm-elf/lib/thumb/interwork\libm.a(w_atan2.o) (__errno)

Allocating common symbols
Common symbol       size              file

LL_1khz_attitude_data
                    0x5c              LL_HL_comm.o
aciSendSingleId     0x8c              asctecCommIntfOnboard.o
WO_CTRL_Input       0xc               sdk.o
I2CReadLength       0x4               i2c.o
GPS_Time            0x8               main.o
buildInfo           0x53              buildInfoSetup.o
I2CSlaveBuffer      0x20              i2c.o
content             0x100             lpc_aci_eeprom.o
GPS_RawBuffer       0x180             ./\libublox.a(ublox.o)
aciParPacketContentBuffer
                    0x4b0             asctecCommIntfOnboard.o
CurrentRxIndex      0x4               ssp.o
WO_Direct_Motor_Control
                    0x4               sdk.o
SPIWR_num_bytes     0x4               ssp.o
aciSendSingleBufferCnt
                    0x8c              asctecCommIntfOnboard.o
urRecData           0x100             ./\libublox.a(ublox.o)
aciListPar          0x3b6             asctecCommIntfOnboard.o
aciParPacketSelect  0x180             asctecCommIntfOnboard.o
CAMERA_Commands     0xc               pelican_ptu.o
satInfo             0xc0              ./\libublox.a(ublox.o)
aciSendSingleBuffer
                    0x230             asctecCommIntfOnboard.o
CurrentTxIndex      0x4               ssp.o
aciParPacketSelectLength
                    0x3               asctecCommIntfOnboard.o
aciCmdPacketSelectLength
                    0x3               asctecCommIntfOnboard.o
WO_Direct_Individual_Motor_Control
                    0xc               sdk.o
IMU_CalcData        0x5c              main.o
aciCmdPacketContentBuffer
                    0x4b0             asctecCommIntfOnboard.o
aciVarPacketContentBuffer
                    0x690             asctecCommIntfOnboard.o
WO_SDK              0x4               sdk.o
aciCmdPacketSelect  0x180             asctecCommIntfOnboard.o
jetiDisplayText     0x20              jetiTelemetry.o
aciTxRingBuffer     0xa0              asctecCommIntfOnboard.o
aciVarPacketTypeList
                    0xc0              asctecCommIntfOnboard.o
UART_rxptr          0x4               uart.o
I2C1WriteLength     0x4               i2c1.o
aciListVar          0x532             asctecCommIntfOnboard.o
aciParPacketContentBufferValid
                    0x3               asctecCommIntfOnboard.o
jetiValues          0x14a             jetiTelemetry.o
I2CMode             0x4               i2c.o
aciSendSingleStatus
                    0x8c              asctecCommIntfOnboard.o
LL_1khz_control_input
                    0x38              LL_HL_comm.o
aciVarPacketPtrList
                    0x300             asctecCommIntfOnboard.o
I2CMasterBuffer     0x20              i2c.o
I2CCmd              0x4               i2c.o
urConfigCnt         0x1               ./\libublox.a(ublox.o)
aciParPacketContentBufferLength
                    0x6               asctecCommIntfOnboard.o
send_buffer         0x10              uart.o
aciCmdPacketContentBufferInvalidCnt
                    0x3               asctecCommIntfOnboard.o
aciVarPacketContentBufferLength
                    0x6               asctecCommIntfOnboard.o
urCfgIdList         0x4               ./\libublox.a(ublox.o)
iap_entry           0x4               LPC2k_ee.o
current_chksum      0x2               uart.o
RO_RC_Data          0x10              sdk.o
aciListCmd          0x3b6             asctecCommIntfOnboard.o
aciSendSingleVarType
                    0x46              asctecCommIntfOnboard.o
aciRxDataCnt        0x2               asctecCommIntfOnboard.o
last_bit            0x4               sdk.o
packets             0x1               uart.o
aciStartTxCallback  0x4               asctecCommIntfOnboard.o
I2CWriteLength      0x4               i2c.o
laser_distance      0x2               sdk.o
wpToLL              0x1c              LL_HL_comm.o
byte_read           0x1               sdk.o
SPIWRData           0x80              ssp.o
jetiName            0xa               jetiTelemetry.o
GPS_Data            0x2c              gpsmath.o
I2CSTAT             0x4               i2c.o
tx_buff             0x4               uart.o
RO_ALL_Data         0x98              sdk.o
aciRxDataBuffer     0x180             asctecCommIntfOnboard.o
CAMERA_ptu          0x20              pelican_ptu.o
HL_Status           0x18              main.o
aciParPacketContentBufferInvalidCnt
                    0x3               asctecCommIntfOnboard.o
UART1_rxptr         0x4               uart.o
gps_data_temp       0x2c              gpsmath.o
I2C1MasterBuffer    0x20              i2c1.o
aciCmdPacketContentBufferValid
                    0x3               asctecCommIntfOnboard.o
SPIRDData           0x80              ssp.o
ADC0Value           0x20              adc.o
uart_cnt            0x4               main.o
aciReadDatafromFlashCallback
                    0x4               asctecCommIntfOnboard.o
IMU_CalcData_tmp    0x5c              main.o
ADC1Value           0x20              adc.o
adcChannelValues    0x20              adc.o
aciCmdPacketContentBufferLength
                    0x6               asctecCommIntfOnboard.o
gpsHardwareStatus   0xe               ./\libublox.a(ublox.o)
aciVarPacketSelectLength
                    0x3               asctecCommIntfOnboard.o
emergencyMode       0x1               sdk.o
aciVarPacketSelect  0x180             asctecCommIntfOnboard.o

Memory Configuration

Name             Origin             Length             Attributes
ROM              0x00000000         0x00080000         xr
RAM              0x40000000         0x00008000         rw
*default*        0x00000000         0xffffffff

Linker script and memory map

LOAD Common_WinARM/src/Startup.o
LOAD Common_WinARM/src/swi_handler.o
LOAD LL_HL_comm.o
LOAD mymath.o
LOAD gpsmath.o
LOAD sdk.o
LOAD sdk_telemetry.o
LOAD buzzer.o
LOAD lpc_aci_eeprom.o
LOAD asctecCommIntfOnboard.o
LOAD buildInfoSetup.o
LOAD main.o
LOAD hardware.o
LOAD system.o
LOAD uart.o
LOAD syscalls.o
LOAD i2c.o
LOAD i2c1.o
LOAD Common_WinARM/src/irq.o
LOAD adc.o
LOAD ssp.o
LOAD pelican_ptu.o
LOAD jetiTelemetry.o
LOAD LPC2k_ee.o
LOAD e:/asctec_arm_sdk/winarm/bin/../lib/gcc/arm-elf/4.1.1/../../../../arm-elf/lib/thumb/interwork\libc.a
LOAD e:/asctec_arm_sdk/winarm/bin/../lib/gcc/arm-elf/4.1.1/../../../../arm-elf/lib/thumb/interwork\libc.a
LOAD e:/asctec_arm_sdk/winarm/bin/../lib/gcc/arm-elf/4.1.1/thumb/interwork\libgcc.a
LOAD ./\libdeclination.a
LOAD ./\libublox.a
LOAD e:/asctec_arm_sdk/winarm/bin/../lib/gcc/arm-elf/4.1.1/../../../../arm-elf/lib/thumb/interwork\libm.a
START GROUP
LOAD e:/asctec_arm_sdk/winarm/bin/../lib/gcc/arm-elf/4.1.1/thumb/interwork\libgcc.a
LOAD e:/asctec_arm_sdk/winarm/bin/../lib/gcc/arm-elf/4.1.1/../../../../arm-elf/lib/thumb/interwork\libg.a
LOAD e:/asctec_arm_sdk/winarm/bin/../lib/gcc/arm-elf/4.1.1/../../../../arm-elf/lib/thumb/interwork\libc.a
END GROUP

.text           0x00000000    0x1a4dc
 *(.vectorg)
 .vectorg       0x00000000       0x98 Common_WinARM/src/Startup.o
                0x00000050                __IRQ_Wrapper
 .vectorg       0x00000098       0xd0 Common_WinARM/src/swi_handler.o
                0x00000098                SoftwareInterrupt
                0x00000168                . = ALIGN (0x4)
 *(.init)
 .init          0x00000168      0x168 Common_WinARM/src/Startup.o
                0x00000294                __exit_THUMB
                0x00000168                __startup
                0x00000290                __exit_ARM
 *(.text .text.*)
 .text          0x000002d0        0x0 Common_WinARM/src/Startup.o
 .text          0x000002d0       0x38 Common_WinARM/src/swi_handler.o
                0x000002e0                IntGetCPSR
                0x00000300                FiqDisable
                0x000002d0                IntRestore
                0x000002f0                IntDisable
                0x000002d8                FiqRestore
                0x000002e8                IntEnable
                0x000002f8                FiqEnable
 .text          0x00000308     0x12fc LL_HL_comm.o
                0x00000dbc                SSP_data_distribution_HL
                0x00000308                LL_write_ctrl_data
                0x00000424                HL2LL_write_cycle
                0x0000112c                SSP_rx_handler_HL
 .text          0x00001604       0x64 mymath.o
                0x00001610                fast_sqrt
                0x00001604                fast_abs
 .text          0x00001668      0x104 gpsmath.o
                0x00001668                xy2latlon
 .text          0x0000176c      0xa78 sdk.o
                0x0000191c                SDK_EXAMPLE_attitude_commands
                0x00001870                SDK_EXAMPLE_direct_motor_commands_with_standard_output_mapping
                0x000021a4                SDK_mainloop
                0x0000176c                SDK_SetEmergencyMode
                0x000017a8                SDK_EXAMPLE_direct_individual_motor_commands
                0x00001a70                laser_measurement
                0x000019e0                SDK_EXAMPLE_turn_motors_off
                0x00001950                SDK_EXAMPLE_turn_motors_on
                0x00001afc                SDK_EXAMPLE_gps_waypoint_control
 .text          0x000021e4      0x7ec sdk_telemetry.o
                0x000021e4                SDK_jetiAscTecExampleUpdateDisplay
                0x00002578                SDK_jetiAscTecExampleKeyChange
                0x00002344                SDK_jetiAscTecExampleInit
                0x00002714                SDK_jetiAscTecExampleRun
 .text          0x000029d0      0x5e4 buzzer.o
                0x000029f8                buzzer_handler
                0x000029d0                buzzer
 .text          0x00002fb4      0x3a0 lpc_aci_eeprom.o
                0x00003160                lpc_aci_ReadParafromFlash
                0x00003020                lpc_aci_SavePara
                0x00003308                lpc_aci_init
                0x00002fb4                lpc_aci_WriteParatoFlash
 .text          0x00003354     0x2b5c asctecCommIntfOnboard.o
                0x000034ac                aciTxRingBufferReset
                0x00004410                aciSyncVar
                0x00003ce8                aciSendVar
                0x00003940                aciPublishVariableInt
                0x000035e8                aciPublishParameterInt
                0x000058c0                aciReceiveHandler
                0x00003afc                aciSetSaveParaCallback
                0x00005aa0                aciSingleSend
                0x00003aec                aciSetReadParafromFlashCallback
                0x00004280                aciSyncCmd
                0x00003524                aciTxRingBufferGetNextByte
                0x00003c10                aciTxSendPacket
                0x000044b4                aciRxHandleMessage
                0x00003b1c                aciTxRingBufferAddData
                0x00003354                aciInit
                0x00005d30                aciEngine
                0x000035a8                aciUpdateCrc16
                0x00003794                aciPublishCommandInt
                0x0000349c                aciSetStartTxCallback
                0x000034cc                aciTxRingBufferGetFreeSpace
                0x00003b0c                aciSetWriteParatoFlashCallback
                0x00005c40                aciSendSingleWithAck
                0x000040f0                aciSyncPar
                0x0000357c                aciCrcUpdate
                0x0000350c                aciTxRingBufferByteAvailable
 .text          0x00005eb0      0x1bc buildInfoSetup.o
                0x00005eb0                generateBuildInfo
 .text          0x0000606c      0xd3c main.o
                0x0000606c                timer0ISR
                0x000064e4                mainloop
                0x00006154                main
                0x000068f4                ACISDK
 .text          0x00006da8       0x8c hardware.o
                0x00006da8                LED
 .text          0x00006e34      0x58c system.o
                0x00007010                init_timer0
                0x000071a4                init_spi1
                0x000070b8                PWM_Init
                0x00006f68                init_ports
                0x00006e34                init
                0x0000716c                init_spi
                0x00006ebc                init_interrupts
                0x00007378                delay
                0x000072c0                processorClockFrequency
                0x00007280                pll_feed
                0x00007240                pll_init
                0x000072e0                peripheralClockFrequency
 .text          0x000073c0      0xeb4 uart.o
                0x0000788c                UARTWriteChar
                0x000077e0                UART1Initialize
                0x00007b50                UART_send_ringbuffer
                0x000079bc                __putchar
                0x0000792c                UARTReadChar
                0x00007974                UART1ReadChar
                0x000073c0                uart1ISR
                0x00007a00                UART_send
                0x00007e08                crc16
                0x00007d18                crc_update
                0x00008088                ringbuffer1
                0x00007490                uart0ISR
                0x00007c20                UART_SendPacket
                0x00007e9c                ringbuffer
                0x00007734                UARTInitialize
                0x000078dc                UART1WriteChar
                0x00007bb8                UART1_send_ringbuffer
                0x00007abc                UART1_send
 .text          0x00008274      0x2b4 syscalls.o
                0x0000841c                _lseek_r
                0x00008450                _fstat_r
                0x0000848c                isatty
                0x000084b4                _sbrk_r
                0x00008274                _read_r
                0x000083f0                _close_r
                0x00008354                _write_r
 .text          0x00008528      0xf44 i2c.o
                0x000089c4                I2C0_send_motordata
                0x00008c14                I2CEngine
                0x00009044                I2C0ReadByte
                0x00008e1c                I2C0TX_Byte
                0x00008528                I2C0MasterHandler
                0x00008a70                I2CStart
                0x00008e84                I2C0RX_Byte
                0x00008edc                I2C0WriteByte
                0x00009344                read_byte
                0x00008b04                I2CStop
                0x00008d20                I2C0SendStart
                0x00008b60                I2CInit
                0x00008d74                I2C0SendStop
                0x00009288                write_byte
                0x00008ca4                I2C0WaitForSI
 .text          0x0000946c     0x1048 i2c1.o
                0x00009760                fireFlyLedHandler
                0x0000946c                I2C1MasterHandler
                0x0000a29c                I2C1_setRGBLed
                0x0000a488                I2C1State
                0x0000a414                I2C1Engine
                0x0000a3a0                I2C1Init
 .text          0x0000a4b4      0x2d8 Common_WinARM/src/irq.o
                0x0000a5a0                install_irq
                0x0000a694                uninstall_irq
                0x0000a4dc                init_VIC
 .text          0x0000a78c      0x3ec adc.o
                0x0000aa9c                ADC0getSamplingResults
                0x0000a78c                ADCInit
                0x0000a950                ADC1Read
                0x0000a814                ADC0Read
                0x0000aa58                ADC0triggerSampling
 .text          0x0000ab78      0x420 ssp.o
                0x0000ad90                LL_write
                0x0000ad50                LL_write_init
                0x0000ab78                SSPHandler
 .text          0x0000af98      0x928 pelican_ptu.o
                0x0000af98                PTU_init
                0x0000b49c                SERVO_roll_move
                0x0000b57c                PTU_update_middle_positions_by_stick
                0x0000b0b8                PTU_update
                0x0000b3b4                SERVO_pitch_move
 .text          0x0000b8c0     0x1090 jetiTelemetry.o
                0x0000c404                jetiSetValueDate
                0x0000ba08                jetiSetDeviceName
                0x0000bf54                jetiSetValue6B
                0x0000bc6c                jetiSetValue30B
                0x0000bddc                jetiSetValue22B
                0x0000bb48                jetiDeactivateValue
                0x0000c23c                jetiSetValueTime
                0x0000c5f8                jetiSetTextDisplay
                0x0000b964                jetiSetAlarm
                0x0000c0c4                jetiSetValue14B
                0x0000bbc4                jetiSetDecimalPoint
                0x0000b904                jetiCheckForKeyChange
                0x0000b8c0                jetiSetKeyChanged
                0x0000bac0                jetiActivateValue
                0x0000c744                jetiInitValue
 .text          0x0000c950      0x69c LPC2k_ee.o
                0x0000cf64                enter_isp
                0x0000c950                ee_erase
                0x0000ccb0                ee_read
                0x0000ca8c                ee_write
                0x0000cda8                ee_count
                0x0000cd40                ee_readn
                0x0000ce1c                ee_locate
 .text          0x0000cfec       0x20 e:/asctec_arm_sdk/winarm/bin/../lib/gcc/arm-elf/4.1.1/../../../../arm-elf/lib/thumb/interwork\libc.a(memcpy.o)
                0x0000cfec                memcpy
 .text          0x0000d00c       0x40 e:/asctec_arm_sdk/winarm/bin/../lib/gcc/arm-elf/4.1.1/../../../../arm-elf/lib/thumb/interwork\libc.a(printf.o)
                0x0000d00c                printf
                0x0000d030                _printf_r
 .text          0x0000d04c       0x5c e:/asctec_arm_sdk/winarm/bin/../lib/gcc/arm-elf/4.1.1/../../../../arm-elf/lib/thumb/interwork\libc.a(puts.o)
                0x0000d04c                _puts_r
                0x0000d094                puts
 .text          0x0000d0a8       0x84 e:/asctec_arm_sdk/winarm/bin/../lib/gcc/arm-elf/4.1.1/../../../../arm-elf/lib/thumb/interwork\libc.a(sprintf.o)
                0x0000d0ec                _sprintf_r
                0x0000d0a8                sprintf
 .text          0x0000d12c       0x10 e:/asctec_arm_sdk/winarm/bin/../lib/gcc/arm-elf/4.1.1/../../../../arm-elf/lib/thumb/interwork\libc.a(strcpy.o)
                0x0000d12c                strcpy
 .text          0x0000d13c       0x10 e:/asctec_arm_sdk/winarm/bin/../lib/gcc/arm-elf/4.1.1/../../../../arm-elf/lib/thumb/interwork\libc.a(strlen.o)
                0x0000d13c                strlen
 .text          0x0000d14c     0x1460 e:/asctec_arm_sdk/winarm/bin/../lib/gcc/arm-elf/4.1.1/../../../../arm-elf/lib/thumb/interwork\libc.a(vfprintf.o)
                0x0000d16c                _vfprintf_r
                0x0000e58c                vfprintf
 .text          0x0000e5ac       0x50 e:/asctec_arm_sdk/winarm/bin/../lib/gcc/arm-elf/4.1.1/../../../../arm-elf/lib/thumb/interwork\libc.a(wcrtomb.o)
                0x0000e5ac                _wcrtomb_r
                0x0000e5dc                wcrtomb
 .text          0x0000e5fc       0xd8 e:/asctec_arm_sdk/winarm/bin/../lib/gcc/arm-elf/4.1.1/../../../../arm-elf/lib/thumb/interwork\libc.a(wcsrtombs.o)
                0x0000e5fc                _wcsrtombs_r
                0x0000e6ac                wcsrtombs
 .text          0x0000e6d4      0x2b0 e:/asctec_arm_sdk/winarm/bin/../lib/gcc/arm-elf/4.1.1/../../../../arm-elf/lib/thumb/interwork\libc.a(wctomb_r.o)
                0x0000e6d4                _wctomb_r
 .text          0x0000e984       0x94 e:/asctec_arm_sdk/winarm/bin/../lib/gcc/arm-elf/4.1.1/../../../../arm-elf/lib/thumb/interwork\libc.a(wsetup.o)
                0x0000e984                __swsetup
 .text          0x0000ea18      0xd30 e:/asctec_arm_sdk/winarm/bin/../lib/gcc/arm-elf/4.1.1/../../../../arm-elf/lib/thumb/interwork\libc.a(dtoa.o)
                0x0000eb4c                _dtoa_r
 .text          0x0000f748       0x88 e:/asctec_arm_sdk/winarm/bin/../lib/gcc/arm-elf/4.1.1/../../../../arm-elf/lib/thumb/interwork\libc.a(fflush.o)
                0x0000f748                fflush
 .text          0x0000f7d0      0x1b0 e:/asctec_arm_sdk/winarm/bin/../lib/gcc/arm-elf/4.1.1/../../../../arm-elf/lib/thumb/interwork\libc.a(findfp.o)
                0x0000f808                __sinit
                0x0000f8a0                __sfmoreglue
                0x0000f88c                _cleanup
                0x0000f87c                _cleanup_r
                0x0000f8f0                __fp_lock_all
                0x0000f864                __sfp_lock_acquire
                0x0000f908                __sfp
                0x0000f870                __sinit_lock_release
                0x0000f8d8                __fp_unlock_all
                0x0000f868                __sfp_lock_release
                0x0000f86c                __sinit_lock_acquire
 .text          0x0000f980      0x248 e:/asctec_arm_sdk/winarm/bin/../lib/gcc/arm-elf/4.1.1/../../../../arm-elf/lib/thumb/interwork\libc.a(freer.o)
                0x0000fa20                _free_r
                0x0000f980                _malloc_trim_r
 .text          0x0000fbc8      0x25c e:/asctec_arm_sdk/winarm/bin/../lib/gcc/arm-elf/4.1.1/../../../../arm-elf/lib/thumb/interwork\libc.a(fvwrite.o)
                0x0000fbc8                __sfvwrite
 .text          0x0000fe24       0xb4 e:/asctec_arm_sdk/winarm/bin/../lib/gcc/arm-elf/4.1.1/../../../../arm-elf/lib/thumb/interwork\libc.a(fwalk.o)
                0x0000fe80                _fwalk
                0x0000fe24                _fwalk_reent
 .text          0x0000fed8        0x0 e:/asctec_arm_sdk/winarm/bin/../lib/gcc/arm-elf/4.1.1/../../../../arm-elf/lib/thumb/interwork\libc.a(impure.o)
 .text          0x0000fed8       0x78 e:/asctec_arm_sdk/winarm/bin/../lib/gcc/arm-elf/4.1.1/../../../../arm-elf/lib/thumb/interwork\libc.a(locale.o)
                0x0000feec                _setlocale_r
                0x0000fed8                __locale_charset
                0x0000fee4                _localeconv_r
                0x0000ff2c                setlocale
                0x0000ff48                localeconv
 .text          0x0000ff50       0xd8 e:/asctec_arm_sdk/winarm/bin/../lib/gcc/arm-elf/4.1.1/../../../../arm-elf/lib/thumb/interwork\libc.a(makebuf.o)
                0x0000ff50                __smakebuf
 .text          0x00010028      0x4ac e:/asctec_arm_sdk/winarm/bin/../lib/gcc/arm-elf/4.1.1/../../../../arm-elf/lib/thumb/interwork\libc.a(mallocr.o)
                0x00010028                _malloc_r
 .text          0x000104d4       0x18 e:/asctec_arm_sdk/winarm/bin/../lib/gcc/arm-elf/4.1.1/../../../../arm-elf/lib/thumb/interwork\libc.a(memchr.o)
                0x000104d4                memchr
 .text          0x000104ec       0x38 e:/asctec_arm_sdk/winarm/bin/../lib/gcc/arm-elf/4.1.1/../../../../arm-elf/lib/thumb/interwork\libc.a(memmove.o)
                0x000104ec                memmove
 .text          0x00010524       0x10 e:/asctec_arm_sdk/winarm/bin/../lib/gcc/arm-elf/4.1.1/../../../../arm-elf/lib/thumb/interwork\libc.a(memset.o)
                0x00010524                memset
 .text          0x00010534        0x8 e:/asctec_arm_sdk/winarm/bin/../lib/gcc/arm-elf/4.1.1/../../../../arm-elf/lib/thumb/interwork\libc.a(mlock.o)
                0x00010538                __malloc_unlock
                0x00010534                __malloc_lock
 .text          0x0001053c      0x834 e:/asctec_arm_sdk/winarm/bin/../lib/gcc/arm-elf/4.1.1/../../../../arm-elf/lib/thumb/interwork\libc.a(mprec.o)
                0x000107ac                _mprec_log10
                0x00010554                _hi0bits
                0x000107f0                _Balloc
                0x0001084c                _d2b
                0x00010a90                _multiply
                0x00010758                _ratio
                0x00010cec                _s2b
                0x00010bbc                _i2b
                0x0001059c                _lo0bits
                0x00010608                __mcmp
                0x00010c60                _pow5mult
                0x00010648                _ulp
                0x00010698                _b2d
                0x00010bd4                _multadd
                0x00010920                __mdiff
                0x00010a00                _lshift
                0x0001053c                _Bfree
 .text          0x00010d70      0x308 e:/asctec_arm_sdk/winarm/bin/../lib/gcc/arm-elf/4.1.1/../../../../arm-elf/lib/thumb/interwork\libc.a(reallocr.o)
                0x00010d70                _realloc_r
 .text          0x00011078       0x2c e:/asctec_arm_sdk/winarm/bin/../lib/gcc/arm-elf/4.1.1/../../../../arm-elf/lib/thumb/interwork\libc.a(s_isinf.o)
                0x00011078                isinf
 .text          0x000110a4       0x24 e:/asctec_arm_sdk/winarm/bin/../lib/gcc/arm-elf/4.1.1/../../../../arm-elf/lib/thumb/interwork\libc.a(s_isnan.o)
                0x000110a4                isnan
 .text          0x000110c8       0xd0 e:/asctec_arm_sdk/winarm/bin/../lib/gcc/arm-elf/4.1.1/../../../../arm-elf/lib/thumb/interwork\libc.a(stdio.o)
                0x000110e0                __sseek
                0x00011160                __sread
                0x000110c8                __sclose
                0x0001111c                __swrite
 .text          0x00011198       0x18 e:/asctec_arm_sdk/winarm/bin/../lib/gcc/arm-elf/4.1.1/../../../../arm-elf/lib/thumb/interwork\libc.a(strcmp.o)
                0x00011198                strcmp
 .text          0x000111b0       0x5c e:/asctec_arm_sdk/winarm/bin/../lib/gcc/arm-elf/4.1.1/../../../../arm-elf/lib/thumb/interwork\libc.a(callocr.o)
                0x000111b0                _calloc_r
 .text          0x0001120c       0xb8 e:/asctec_arm_sdk/winarm/bin/../lib/gcc/arm-elf/4.1.1/../../../../arm-elf/lib/thumb/interwork\libc.a(fclose.o)
                0x0001120c                _fclose_r
                0x000112ac                fclose
 .text          0x000112c4       0x8c e:/asctec_arm_sdk/winarm/bin/../lib/gcc/arm-elf/4.1.1/thumb/interwork\libgcc.a(_udivsi3.o)
                0x000112c4                __udivsi3
                0x000112c4                __aeabi_uidiv
                0x00011340                __aeabi_uidivmod
 .text          0x00011350       0xa4 e:/asctec_arm_sdk/winarm/bin/../lib/gcc/arm-elf/4.1.1/thumb/interwork\libgcc.a(_divsi3.o)
                0x00011350                __aeabi_idiv
                0x00011350                __divsi3
                0x000113e4                __aeabi_idivmod
 .text          0x000113f4       0xc8 e:/asctec_arm_sdk/winarm/bin/../lib/gcc/arm-elf/4.1.1/thumb/interwork\libgcc.a(_umodsi3.o)
                0x000113f4                __umodsi3
 .text          0x000114bc       0xd8 e:/asctec_arm_sdk/winarm/bin/../lib/gcc/arm-elf/4.1.1/thumb/interwork\libgcc.a(_modsi3.o)
                0x000114bc                __modsi3
 .text          0x00011594        0x4 e:/asctec_arm_sdk/winarm/bin/../lib/gcc/arm-elf/4.1.1/thumb/interwork\libgcc.a(_dvmd_tls.o)
                0x00011594                __aeabi_ldiv0
                0x00011594                __div0
                0x00011594                __aeabi_idiv0
 .text          0x00011598      0x430 e:/asctec_arm_sdk/winarm/bin/../lib/gcc/arm-elf/4.1.1/thumb/interwork\libgcc.a(_addsubdf3.o)
                0x0001195c                __floatdidf
                0x000118dc                __floatsidf
                0x000118b4                __aeabi_ui2d
                0x00011598                __aeabi_drsub
                0x00011908                __extendsfdf2
                0x000115a4                __adddf3
                0x000118b4                __floatunsidf
                0x000115a4                __aeabi_dadd
                0x00011948                __aeabi_ul2d
                0x000115a0                __aeabi_dsub
                0x00011948                __floatundidf
                0x000118dc                __aeabi_i2d
                0x0001195c                __aeabi_l2d
                0x00011908                __aeabi_f2d
                0x000115a0                __subdf3
 .text          0x000119c8      0x49c e:/asctec_arm_sdk/winarm/bin/../lib/gcc/arm-elf/4.1.1/thumb/interwork\libgcc.a(_muldivdf3.o)
                0x00011c58                __aeabi_ddiv
                0x000119c8                __aeabi_dmul
                0x00011c58                __divdf3
                0x000119c8                __muldf3
 .text          0x00011e64      0x140 e:/asctec_arm_sdk/winarm/bin/../lib/gcc/arm-elf/4.1.1/thumb/interwork\libgcc.a(_cmpdf2.o)
                0x00011f5c                __aeabi_dcmple
                0x00011e74                __cmpdf2
                0x00011e74                __eqdf2
                0x00011e64                __gtdf2
                0x00011f14                __aeabi_cdcmple
                0x00011ef8                __aeabi_cdrcmple
                0x00011e6c                __ltdf2
                0x00011f44                __aeabi_dcmplt
                0x00011e6c                __ledf2
                0x00011f8c                __aeabi_dcmpgt
                0x00011f74                __aeabi_dcmpge
                0x00011e74                __nedf2
                0x00011f2c                __aeabi_dcmpeq
                0x00011f14                __aeabi_cdcmpeq
                0x00011e64                __gedf2
 .text          0x00011fa4       0x5c e:/asctec_arm_sdk/winarm/bin/../lib/gcc/arm-elf/4.1.1/thumb/interwork\libgcc.a(_fixdfsi.o)
                0x00011fa4                __fixdfsi
                0x00011fa4                __aeabi_d2iz
 .text          0x00012000     0x3250 ./\libdeclination.a(declination.o)
                0x00014aac                geomg1
                0x00014b1c                getDeclination
                0x00014a44                geomag
 .text          0x00015250     0x1e88 ./\libublox.a(ublox.o)
                0x00015d78                uBloxReceiveHandler
                0x00015468                pollMessageRate
                0x0001643c                uBloxReceiveEngine
                0x000155c0                uBloxHandleMessage
                0x00015524                uBloxResetConfiguration
                0x000154c0                setMessageRate
                0x00015250                uBloxSendMessage
 .text          0x000170d8       0xa8 e:/asctec_arm_sdk/winarm/bin/../lib/gcc/arm-elf/4.1.1/../../../../arm-elf/lib/thumb/interwork\libm.a(s_cos.o)
                0x000170d8                cos
 .text          0x00017180       0xac e:/asctec_arm_sdk/winarm/bin/../lib/gcc/arm-elf/4.1.1/../../../../arm-elf/lib/thumb/interwork\libm.a(s_sin.o)
                0x00017180                sin
 .text          0x0001722c       0xc0 e:/asctec_arm_sdk/winarm/bin/../lib/gcc/arm-elf/4.1.1/../../../../arm-elf/lib/thumb/interwork\libm.a(w_atan2.o)
                0x0001722c                atan2
 .text          0x000172ec       0xb8 e:/asctec_arm_sdk/winarm/bin/../lib/gcc/arm-elf/4.1.1/../../../../arm-elf/lib/thumb/interwork\libm.a(w_sqrt.o)
                0x000172ec                sqrt
 .text          0x000173a4      0x20c e:/asctec_arm_sdk/winarm/bin/../lib/gcc/arm-elf/4.1.1/../../../../arm-elf/lib/thumb/interwork\libm.a(e_atan2.o)
                0x000173a4                __ieee754_atan2
 .text          0x000175b0      0x420 e:/asctec_arm_sdk/winarm/bin/../lib/gcc/arm-elf/4.1.1/../../../../arm-elf/lib/thumb/interwork\libm.a(e_rem_pio2.o)
                0x000175b0                __ieee754_rem_pio2
 .text          0x000179d0      0x1a0 e:/asctec_arm_sdk/winarm/bin/../lib/gcc/arm-elf/4.1.1/../../../../arm-elf/lib/thumb/interwork\libm.a(e_sqrt.o)
                0x000179d0                __ieee754_sqrt
 .text          0x00017b70      0x264 e:/asctec_arm_sdk/winarm/bin/../lib/gcc/arm-elf/4.1.1/../../../../arm-elf/lib/thumb/interwork\libm.a(k_cos.o)
                0x00017b70                __kernel_cos
 .text          0x00017dd4      0x744 e:/asctec_arm_sdk/winarm/bin/../lib/gcc/arm-elf/4.1.1/../../../../arm-elf/lib/thumb/interwork\libm.a(k_rem_pio2.o)
                0x00017dd4                __kernel_rem_pio2
 .text          0x00018518      0x178 e:/asctec_arm_sdk/winarm/bin/../lib/gcc/arm-elf/4.1.1/../../../../arm-elf/lib/thumb/interwork\libm.a(k_sin.o)
                0x00018518                __kernel_sin
 .text          0x00018690      0x35c e:/asctec_arm_sdk/winarm/bin/../lib/gcc/arm-elf/4.1.1/../../../../arm-elf/lib/thumb/interwork\libm.a(s_atan.o)
                0x00018690                atan
 .text          0x000189ec       0x18 e:/asctec_arm_sdk/winarm/bin/../lib/gcc/arm-elf/4.1.1/../../../../arm-elf/lib/thumb/interwork\libm.a(s_fabs.o)
                0x000189ec                fabs
 .text          0x00018a04      0x12c e:/asctec_arm_sdk/winarm/bin/../lib/gcc/arm-elf/4.1.1/../../../../arm-elf/lib/thumb/interwork\libm.a(s_floor.o)
                0x00018a04                floor
 .text          0x00018b30        0x0 e:/asctec_arm_sdk/winarm/bin/../lib/gcc/arm-elf/4.1.1/../../../../arm-elf/lib/thumb/interwork\libm.a(s_lib_ver.o)
 .text          0x00018b30        0x4 e:/asctec_arm_sdk/winarm/bin/../lib/gcc/arm-elf/4.1.1/../../../../arm-elf/lib/thumb/interwork\libm.a(s_matherr.o)
                0x00018b30                matherr
 .text          0x00018b34      0x110 e:/asctec_arm_sdk/winarm/bin/../lib/gcc/arm-elf/4.1.1/../../../../arm-elf/lib/thumb/interwork\libm.a(s_scalbn.o)
                0x00018b34                scalbn
 .text          0x00018c44       0x24 e:/asctec_arm_sdk/winarm/bin/../lib/gcc/arm-elf/4.1.1/../../../../arm-elf/lib/thumb/interwork\libm.a(s_copysign.o)
                0x00018c44                copysign
 .text          0x00018c68       0xa0 e:/asctec_arm_sdk/winarm/bin/../lib/gcc/arm-elf/4.1.1/thumb/interwork\libgcc.a(_truncdfsf2.o)
                0x00018c68                __aeabi_d2f
                0x00018c68                __truncdfsf2
 .text          0x00018d08      0x2ac e:/asctec_arm_sdk/winarm/bin/../lib/gcc/arm-elf/4.1.1/thumb/interwork\libgcc.a(_addsubsf3.o)
                0x00018d14                __aeabi_fadd
                0x00018d10                __subsf3
                0x00018ed8                __aeabi_i2f
                0x00018d10                __aeabi_fsub
                0x00018f08                __floatdisf
                0x00018ed8                __floatsisf
                0x00018ef8                __floatundisf
                0x00018ed0                __aeabi_ui2f
                0x00018f08                __aeabi_l2f
                0x00018ef8                __aeabi_ul2f
                0x00018d08                __aeabi_frsub
                0x00018ed0                __floatunsisf
                0x00018d14                __addsf3
 .text          0x00018fb4      0x2f8 e:/asctec_arm_sdk/winarm/bin/../lib/gcc/arm-elf/4.1.1/thumb/interwork\libgcc.a(_muldivsf3.o)
                0x0001914c                __divsf3
                0x0001914c                __aeabi_fdiv
                0x00018fb4                __mulsf3
                0x00018fb4                __aeabi_fmul
 .text          0x000192ac      0x110 e:/asctec_arm_sdk/winarm/bin/../lib/gcc/arm-elf/4.1.1/thumb/interwork\libgcc.a(_cmpsf2.o)
                0x000193a4                __aeabi_fcmpgt
                0x000192b4                __lesf2
                0x000192bc                __nesf2
                0x0001938c                __aeabi_fcmpge
                0x000192ac                __gtsf2
                0x00019374                __aeabi_fcmple
                0x000192bc                __eqsf2
                0x000192bc                __cmpsf2
                0x000192b4                __ltsf2
                0x0001932c                __aeabi_cfcmple
                0x000192ac                __gesf2
                0x00019344                __aeabi_fcmpeq
                0x0001931c                __aeabi_cfrcmple
                0x0001935c                __aeabi_fcmplt
                0x0001932c                __aeabi_cfcmpeq
 .text          0x000193bc       0x5c e:/asctec_arm_sdk/winarm/bin/../lib/gcc/arm-elf/4.1.1/thumb/interwork\libgcc.a(_fixsfsi.o)
                0x000193bc                __fixsfsi
                0x000193bc                __aeabi_f2iz
 .text          0x00019418        0xc e:/asctec_arm_sdk/winarm/bin/../lib/gcc/arm-elf/4.1.1/../../../../arm-elf/lib/thumb/interwork\libg.a(errno.o)
                0x00019418                __errno
 *(.gnu.linkonce.t.*)
 *(.glue_7)
 .glue_7        0x00019424        0x0 Common_WinARM/src/Startup.o
 .glue_7        0x00019424        0x0 Common_WinARM/src/swi_handler.o
 .glue_7        0x00019424        0x0 LL_HL_comm.o
 .glue_7        0x00019424        0x0 mymath.o
 .glue_7        0x00019424        0x0 gpsmath.o
 .glue_7        0x00019424        0x0 sdk.o
 .glue_7        0x00019424        0x0 sdk_telemetry.o
 .glue_7        0x00019424        0x0 buzzer.o
 .glue_7        0x00019424        0x0 lpc_aci_eeprom.o
 .glue_7        0x00019424        0x0 asctecCommIntfOnboard.o
 .glue_7        0x00019424        0x0 buildInfoSetup.o
 .glue_7        0x00019424        0x0 main.o
 .glue_7        0x00019424        0x0 hardware.o
 .glue_7        0x00019424        0x0 system.o
 .glue_7        0x00019424        0x0 uart.o
 .glue_7        0x00019424        0x0 syscalls.o
 .glue_7        0x00019424        0x0 i2c.o
 .glue_7        0x00019424        0x0 i2c1.o
 .glue_7        0x00019424        0x0 Common_WinARM/src/irq.o
 .glue_7        0x00019424        0x0 adc.o
 .glue_7        0x00019424        0x0 ssp.o
 .glue_7        0x00019424        0x0 pelican_ptu.o
 .glue_7        0x00019424        0x0 jetiTelemetry.o
 .glue_7        0x00019424        0x0 LPC2k_ee.o
 .glue_7        0x00019424        0x0 e:/asctec_arm_sdk/winarm/bin/../lib/gcc/arm-elf/4.1.1/../../../../arm-elf/lib/thumb/interwork\libc.a(memcpy.o)
 .glue_7        0x00019424        0x0 e:/asctec_arm_sdk/winarm/bin/../lib/gcc/arm-elf/4.1.1/../../../../arm-elf/lib/thumb/interwork\libc.a(printf.o)
 .glue_7        0x00019424        0x0 e:/asctec_arm_sdk/winarm/bin/../lib/gcc/arm-elf/4.1.1/../../../../arm-elf/lib/thumb/interwork\libc.a(puts.o)
 .glue_7        0x00019424        0x0 e:/asctec_arm_sdk/winarm/bin/../lib/gcc/arm-elf/4.1.1/../../../../arm-elf/lib/thumb/interwork\libc.a(sprintf.o)
 .glue_7        0x00019424        0x0 e:/asctec_arm_sdk/winarm/bin/../lib/gcc/arm-elf/4.1.1/../../../../arm-elf/lib/thumb/interwork\libc.a(strcpy.o)
 .glue_7        0x00019424        0x0 e:/asctec_arm_sdk/winarm/bin/../lib/gcc/arm-elf/4.1.1/../../../../arm-elf/lib/thumb/interwork\libc.a(strlen.o)
 .glue_7        0x00019424        0x0 e:/asctec_arm_sdk/winarm/bin/../lib/gcc/arm-elf/4.1.1/../../../../arm-elf/lib/thumb/interwork\libc.a(vfprintf.o)
 .glue_7        0x00019424        0x0 e:/asctec_arm_sdk/winarm/bin/../lib/gcc/arm-elf/4.1.1/../../../../arm-elf/lib/thumb/interwork\libc.a(wcrtomb.o)
 .glue_7        0x00019424        0x0 e:/asctec_arm_sdk/winarm/bin/../lib/gcc/arm-elf/4.1.1/../../../../arm-elf/lib/thumb/interwork\libc.a(wcsrtombs.o)
 .glue_7        0x00019424        0x0 e:/asctec_arm_sdk/winarm/bin/../lib/gcc/arm-elf/4.1.1/../../../../arm-elf/lib/thumb/interwork\libc.a(wctomb_r.o)
 .glue_7        0x00019424        0x0 e:/asctec_arm_sdk/winarm/bin/../lib/gcc/arm-elf/4.1.1/../../../../arm-elf/lib/thumb/interwork\libc.a(wsetup.o)
 .glue_7        0x00019424        0x0 e:/asctec_arm_sdk/winarm/bin/../lib/gcc/arm-elf/4.1.1/../../../../arm-elf/lib/thumb/interwork\libc.a(dtoa.o)
 .glue_7        0x00019424        0x0 e:/asctec_arm_sdk/winarm/bin/../lib/gcc/arm-elf/4.1.1/../../../../arm-elf/lib/thumb/interwork\libc.a(fflush.o)
 .glue_7        0x00019424        0x0 e:/asctec_arm_sdk/winarm/bin/../lib/gcc/arm-elf/4.1.1/../../../../arm-elf/lib/thumb/interwork\libc.a(findfp.o)
 .glue_7        0x00019424        0x0 e:/asctec_arm_sdk/winarm/bin/../lib/gcc/arm-elf/4.1.1/../../../../arm-elf/lib/thumb/interwork\libc.a(freer.o)
 .glue_7        0x00019424        0x0 e:/asctec_arm_sdk/winarm/bin/../lib/gcc/arm-elf/4.1.1/../../../../arm-elf/lib/thumb/interwork\libc.a(fvwrite.o)
 .glue_7        0x00019424        0x0 e:/asctec_arm_sdk/winarm/bin/../lib/gcc/arm-elf/4.1.1/../../../../arm-elf/lib/thumb/interwork\libc.a(fwalk.o)
 .glue_7        0x00019424        0x0 e:/asctec_arm_sdk/winarm/bin/../lib/gcc/arm-elf/4.1.1/../../../../arm-elf/lib/thumb/interwork\libc.a(impure.o)
 .glue_7        0x00019424        0x0 e:/asctec_arm_sdk/winarm/bin/../lib/gcc/arm-elf/4.1.1/../../../../arm-elf/lib/thumb/interwork\libc.a(locale.o)
 .glue_7        0x00019424        0x0 e:/asctec_arm_sdk/winarm/bin/../lib/gcc/arm-elf/4.1.1/../../../../arm-elf/lib/thumb/interwork\libc.a(makebuf.o)
 .glue_7        0x00019424        0x0 e:/asctec_arm_sdk/winarm/bin/../lib/gcc/arm-elf/4.1.1/../../../../arm-elf/lib/thumb/interwork\libc.a(mallocr.o)
 .glue_7        0x00019424        0x0 e:/asctec_arm_sdk/winarm/bin/../lib/gcc/arm-elf/4.1.1/../../../../arm-elf/lib/thumb/interwork\libc.a(memchr.o)
 .glue_7        0x00019424        0x0 e:/asctec_arm_sdk/winarm/bin/../lib/gcc/arm-elf/4.1.1/../../../../arm-elf/lib/thumb/interwork\libc.a(memmove.o)
 .glue_7        0x00019424        0x0 e:/asctec_arm_sdk/winarm/bin/../lib/gcc/arm-elf/4.1.1/../../../../arm-elf/lib/thumb/interwork\libc.a(memset.o)
 .glue_7        0x00019424        0x0 e:/asctec_arm_sdk/winarm/bin/../lib/gcc/arm-elf/4.1.1/../../../../arm-elf/lib/thumb/interwork\libc.a(mlock.o)
 .glue_7        0x00019424        0x0 e:/asctec_arm_sdk/winarm/bin/../lib/gcc/arm-elf/4.1.1/../../../../arm-elf/lib/thumb/interwork\libc.a(mprec.o)
 .glue_7        0x00019424        0x0 e:/asctec_arm_sdk/winarm/bin/../lib/gcc/arm-elf/4.1.1/../../../../arm-elf/lib/thumb/interwork\libc.a(reallocr.o)
 .glue_7        0x00019424        0x0 e:/asctec_arm_sdk/winarm/bin/../lib/gcc/arm-elf/4.1.1/../../../../arm-elf/lib/thumb/interwork\libc.a(s_isinf.o)
 .glue_7        0x00019424        0x0 e:/asctec_arm_sdk/winarm/bin/../lib/gcc/arm-elf/4.1.1/../../../../arm-elf/lib/thumb/interwork\libc.a(s_isnan.o)
 .glue_7        0x00019424        0x0 e:/asctec_arm_sdk/winarm/bin/../lib/gcc/arm-elf/4.1.1/../../../../arm-elf/lib/thumb/interwork\libc.a(stdio.o)
 .glue_7        0x00019424        0x0 e:/asctec_arm_sdk/winarm/bin/../lib/gcc/arm-elf/4.1.1/../../../../arm-elf/lib/thumb/interwork\libc.a(strcmp.o)
 .glue_7        0x00019424        0x0 e:/asctec_arm_sdk/winarm/bin/../lib/gcc/arm-elf/4.1.1/../../../../arm-elf/lib/thumb/interwork\libc.a(callocr.o)
 .glue_7        0x00019424        0x0 e:/asctec_arm_sdk/winarm/bin/../lib/gcc/arm-elf/4.1.1/../../../../arm-elf/lib/thumb/interwork\libc.a(fclose.o)
 .glue_7        0x00019424        0x0 e:/asctec_arm_sdk/winarm/bin/../lib/gcc/arm-elf/4.1.1/thumb/interwork\libgcc.a(_udivsi3.o)
 .glue_7        0x00019424        0x0 e:/asctec_arm_sdk/winarm/bin/../lib/gcc/arm-elf/4.1.1/thumb/interwork\libgcc.a(_divsi3.o)
 .glue_7        0x00019424        0x0 e:/asctec_arm_sdk/winarm/bin/../lib/gcc/arm-elf/4.1.1/thumb/interwork\libgcc.a(_umodsi3.o)
 .glue_7        0x00019424        0x0 e:/asctec_arm_sdk/winarm/bin/../lib/gcc/arm-elf/4.1.1/thumb/interwork\libgcc.a(_modsi3.o)
 .glue_7        0x00019424        0x0 e:/asctec_arm_sdk/winarm/bin/../lib/gcc/arm-elf/4.1.1/thumb/interwork\libgcc.a(_dvmd_tls.o)
 .glue_7        0x00019424        0x0 e:/asctec_arm_sdk/winarm/bin/../lib/gcc/arm-elf/4.1.1/thumb/interwork\libgcc.a(_addsubdf3.o)
 .glue_7        0x00019424        0x0 e:/asctec_arm_sdk/winarm/bin/../lib/gcc/arm-elf/4.1.1/thumb/interwork\libgcc.a(_muldivdf3.o)
 .glue_7        0x00019424        0x0 e:/asctec_arm_sdk/winarm/bin/../lib/gcc/arm-elf/4.1.1/thumb/interwork\libgcc.a(_cmpdf2.o)
 .glue_7        0x00019424        0x0 e:/asctec_arm_sdk/winarm/bin/../lib/gcc/arm-elf/4.1.1/thumb/interwork\libgcc.a(_fixdfsi.o)
 .glue_7        0x00019424        0x0 ./\libdeclination.a(declination.o)
 .glue_7        0x00019424        0x0 ./\libublox.a(ublox.o)
 .glue_7        0x00019424        0x0 e:/asctec_arm_sdk/winarm/bin/../lib/gcc/arm-elf/4.1.1/../../../../arm-elf/lib/thumb/interwork\libm.a(s_cos.o)
 .glue_7        0x00019424        0x0 e:/asctec_arm_sdk/winarm/bin/../lib/gcc/arm-elf/4.1.1/../../../../arm-elf/lib/thumb/interwork\libm.a(s_sin.o)
 .glue_7        0x00019424        0x0 e:/asctec_arm_sdk/winarm/bin/../lib/gcc/arm-elf/4.1.1/../../../../arm-elf/lib/thumb/interwork\libm.a(w_atan2.o)
 .glue_7        0x00019424        0x0 e:/asctec_arm_sdk/winarm/bin/../lib/gcc/arm-elf/4.1.1/../../../../arm-elf/lib/thumb/interwork\libm.a(w_sqrt.o)
 .glue_7        0x00019424        0x0 e:/asctec_arm_sdk/winarm/bin/../lib/gcc/arm-elf/4.1.1/../../../../arm-elf/lib/thumb/interwork\libm.a(e_atan2.o)
 .glue_7        0x00019424        0x0 e:/asctec_arm_sdk/winarm/bin/../lib/gcc/arm-elf/4.1.1/../../../../arm-elf/lib/thumb/interwork\libm.a(e_rem_pio2.o)
 .glue_7        0x00019424        0x0 e:/asctec_arm_sdk/winarm/bin/../lib/gcc/arm-elf/4.1.1/../../../../arm-elf/lib/thumb/interwork\libm.a(e_sqrt.o)
 .glue_7        0x00019424        0x0 e:/asctec_arm_sdk/winarm/bin/../lib/gcc/arm-elf/4.1.1/../../../../arm-elf/lib/thumb/interwork\libm.a(k_cos.o)
 .glue_7        0x00019424        0x0 e:/asctec_arm_sdk/winarm/bin/../lib/gcc/arm-elf/4.1.1/../../../../arm-elf/lib/thumb/interwork\libm.a(k_rem_pio2.o)
 .glue_7        0x00019424        0x0 e:/asctec_arm_sdk/winarm/bin/../lib/gcc/arm-elf/4.1.1/../../../../arm-elf/lib/thumb/interwork\libm.a(k_sin.o)
 .glue_7        0x00019424        0x0 e:/asctec_arm_sdk/winarm/bin/../lib/gcc/arm-elf/4.1.1/../../../../arm-elf/lib/thumb/interwork\libm.a(s_atan.o)
 .glue_7        0x00019424        0x0 e:/asctec_arm_sdk/winarm/bin/../lib/gcc/arm-elf/4.1.1/../../../../arm-elf/lib/thumb/interwork\libm.a(s_fabs.o)
 .glue_7        0x00019424        0x0 e:/asctec_arm_sdk/winarm/bin/../lib/gcc/arm-elf/4.1.1/../../../../arm-elf/lib/thumb/interwork\libm.a(s_floor.o)
 .glue_7        0x00019424        0x0 e:/asctec_arm_sdk/winarm/bin/../lib/gcc/arm-elf/4.1.1/../../../../arm-elf/lib/thumb/interwork\libm.a(s_lib_ver.o)
 .glue_7        0x00019424        0x0 e:/asctec_arm_sdk/winarm/bin/../lib/gcc/arm-elf/4.1.1/../../../../arm-elf/lib/thumb/interwork\libm.a(s_matherr.o)
 .glue_7        0x00019424        0x0 e:/asctec_arm_sdk/winarm/bin/../lib/gcc/arm-elf/4.1.1/../../../../arm-elf/lib/thumb/interwork\libm.a(s_scalbn.o)
 .glue_7        0x00019424        0x0 e:/asctec_arm_sdk/winarm/bin/../lib/gcc/arm-elf/4.1.1/../../../../arm-elf/lib/thumb/interwork\libm.a(s_copysign.o)
 .glue_7        0x00019424        0x0 e:/asctec_arm_sdk/winarm/bin/../lib/gcc/arm-elf/4.1.1/thumb/interwork\libgcc.a(_truncdfsf2.o)
 .glue_7        0x00019424        0x0 e:/asctec_arm_sdk/winarm/bin/../lib/gcc/arm-elf/4.1.1/thumb/interwork\libgcc.a(_addsubsf3.o)
 .glue_7        0x00019424        0x0 e:/asctec_arm_sdk/winarm/bin/../lib/gcc/arm-elf/4.1.1/thumb/interwork\libgcc.a(_muldivsf3.o)
 .glue_7        0x00019424        0x0 e:/asctec_arm_sdk/winarm/bin/../lib/gcc/arm-elf/4.1.1/thumb/interwork\libgcc.a(_cmpsf2.o)
 .glue_7        0x00019424        0x0 e:/asctec_arm_sdk/winarm/bin/../lib/gcc/arm-elf/4.1.1/thumb/interwork\libgcc.a(_fixsfsi.o)
 .glue_7        0x00019424       0x90 e:/asctec_arm_sdk/winarm/bin/../lib/gcc/arm-elf/4.1.1/../../../../arm-elf/lib/thumb/interwork\libg.a(errno.o)
                0x0001946c                __strcpy_from_arm
                0x000194a8                __atan2_from_arm
                0x00019460                __strlen_from_arm
                0x0001943c                __cos_from_arm
                0x00019454                ____udivsi3_from_arm
                0x00019448                __sprintf_from_arm
                0x00019430                ____divsi3_from_arm
                0x00019424                __memcpy_from_arm
                0x00019478                __puts_from_arm
                0x00019484                __printf_from_arm
                0x0001949c                __sin_from_arm
                0x00019490                __sqrt_from_arm
 *(.glue_7t)
 .glue_7t       0x000194b4        0x0 Common_WinARM/src/Startup.o
 .glue_7t       0x000194b4        0x0 Common_WinARM/src/swi_handler.o
 .glue_7t       0x000194b4        0x0 LL_HL_comm.o
 .glue_7t       0x000194b4        0x0 mymath.o
 .glue_7t       0x000194b4        0x0 gpsmath.o
 .glue_7t       0x000194b4        0x0 sdk.o
 .glue_7t       0x000194b4        0x0 sdk_telemetry.o
 .glue_7t       0x000194b4        0x0 buzzer.o
 .glue_7t       0x000194b4        0x0 lpc_aci_eeprom.o
 .glue_7t       0x000194b4        0x0 asctecCommIntfOnboard.o
 .glue_7t       0x000194b4        0x0 buildInfoSetup.o
 .glue_7t       0x000194b4        0x0 main.o
 .glue_7t       0x000194b4        0x0 hardware.o
 .glue_7t       0x000194b4        0x0 system.o
 .glue_7t       0x000194b4        0x0 uart.o
 .glue_7t       0x000194b4        0x0 syscalls.o
 .glue_7t       0x000194b4        0x0 i2c.o
 .glue_7t       0x000194b4        0x0 i2c1.o
 .glue_7t       0x000194b4        0x0 Common_WinARM/src/irq.o
 .glue_7t       0x000194b4        0x0 adc.o
 .glue_7t       0x000194b4        0x0 ssp.o
 .glue_7t       0x000194b4        0x0 pelican_ptu.o
 .glue_7t       0x000194b4        0x0 jetiTelemetry.o
 .glue_7t       0x000194b4        0x0 LPC2k_ee.o
 .glue_7t       0x000194b4        0x0 e:/asctec_arm_sdk/winarm/bin/../lib/gcc/arm-elf/4.1.1/../../../../arm-elf/lib/thumb/interwork\libc.a(memcpy.o)
 .glue_7t       0x000194b4        0x0 e:/asctec_arm_sdk/winarm/bin/../lib/gcc/arm-elf/4.1.1/../../../../arm-elf/lib/thumb/interwork\libc.a(printf.o)
 .glue_7t       0x000194b4        0x0 e:/asctec_arm_sdk/winarm/bin/../lib/gcc/arm-elf/4.1.1/../../../../arm-elf/lib/thumb/interwork\libc.a(puts.o)
 .glue_7t       0x000194b4        0x0 e:/asctec_arm_sdk/winarm/bin/../lib/gcc/arm-elf/4.1.1/../../../../arm-elf/lib/thumb/interwork\libc.a(sprintf.o)
 .glue_7t       0x000194b4        0x0 e:/asctec_arm_sdk/winarm/bin/../lib/gcc/arm-elf/4.1.1/../../../../arm-elf/lib/thumb/interwork\libc.a(strcpy.o)
 .glue_7t       0x000194b4        0x0 e:/asctec_arm_sdk/winarm/bin/../lib/gcc/arm-elf/4.1.1/../../../../arm-elf/lib/thumb/interwork\libc.a(strlen.o)
 .glue_7t       0x000194b4        0x0 e:/asctec_arm_sdk/winarm/bin/../lib/gcc/arm-elf/4.1.1/../../../../arm-elf/lib/thumb/interwork\libc.a(vfprintf.o)
 .glue_7t       0x000194b4        0x0 e:/asctec_arm_sdk/winarm/bin/../lib/gcc/arm-elf/4.1.1/../../../../arm-elf/lib/thumb/interwork\libc.a(wcrtomb.o)
 .glue_7t       0x000194b4        0x0 e:/asctec_arm_sdk/winarm/bin/../lib/gcc/arm-elf/4.1.1/../../../../arm-elf/lib/thumb/interwork\libc.a(wcsrtombs.o)
 .glue_7t       0x000194b4        0x0 e:/asctec_arm_sdk/winarm/bin/../lib/gcc/arm-elf/4.1.1/../../../../arm-elf/lib/thumb/interwork\libc.a(wctomb_r.o)
 .glue_7t       0x000194b4        0x0 e:/asctec_arm_sdk/winarm/bin/../lib/gcc/arm-elf/4.1.1/../../../../arm-elf/lib/thumb/interwork\libc.a(wsetup.o)
 .glue_7t       0x000194b4        0x0 e:/asctec_arm_sdk/winarm/bin/../lib/gcc/arm-elf/4.1.1/../../../../arm-elf/lib/thumb/interwork\libc.a(dtoa.o)
 .glue_7t       0x000194b4        0x0 e:/asctec_arm_sdk/winarm/bin/../lib/gcc/arm-elf/4.1.1/../../../../arm-elf/lib/thumb/interwork\libc.a(fflush.o)
 .glue_7t       0x000194b4        0x0 e:/asctec_arm_sdk/winarm/bin/../lib/gcc/arm-elf/4.1.1/../../../../arm-elf/lib/thumb/interwork\libc.a(findfp.o)
 .glue_7t       0x000194b4        0x0 e:/asctec_arm_sdk/winarm/bin/../lib/gcc/arm-elf/4.1.1/../../../../arm-elf/lib/thumb/interwork\libc.a(freer.o)
 .glue_7t       0x000194b4        0x0 e:/asctec_arm_sdk/winarm/bin/../lib/gcc/arm-elf/4.1.1/../../../../arm-elf/lib/thumb/interwork\libc.a(fvwrite.o)
 .glue_7t       0x000194b4        0x0 e:/asctec_arm_sdk/winarm/bin/../lib/gcc/arm-elf/4.1.1/../../../../arm-elf/lib/thumb/interwork\libc.a(fwalk.o)
 .glue_7t       0x000194b4        0x0 e:/asctec_arm_sdk/winarm/bin/../lib/gcc/arm-elf/4.1.1/../../../../arm-elf/lib/thumb/interwork\libc.a(impure.o)
 .glue_7t       0x000194b4        0x0 e:/asctec_arm_sdk/winarm/bin/../lib/gcc/arm-elf/4.1.1/../../../../arm-elf/lib/thumb/interwork\libc.a(locale.o)
 .glue_7t       0x000194b4        0x0 e:/asctec_arm_sdk/winarm/bin/../lib/gcc/arm-elf/4.1.1/../../../../arm-elf/lib/thumb/interwork\libc.a(makebuf.o)
 .glue_7t       0x000194b4        0x0 e:/asctec_arm_sdk/winarm/bin/../lib/gcc/arm-elf/4.1.1/../../../../arm-elf/lib/thumb/interwork\libc.a(mallocr.o)
 .glue_7t       0x000194b4        0x0 e:/asctec_arm_sdk/winarm/bin/../lib/gcc/arm-elf/4.1.1/../../../../arm-elf/lib/thumb/interwork\libc.a(memchr.o)
 .glue_7t       0x000194b4        0x0 e:/asctec_arm_sdk/winarm/bin/../lib/gcc/arm-elf/4.1.1/../../../../arm-elf/lib/thumb/interwork\libc.a(memmove.o)
 .glue_7t       0x000194b4        0x0 e:/asctec_arm_sdk/winarm/bin/../lib/gcc/arm-elf/4.1.1/../../../../arm-elf/lib/thumb/interwork\libc.a(memset.o)
 .glue_7t       0x000194b4        0x0 e:/asctec_arm_sdk/winarm/bin/../lib/gcc/arm-elf/4.1.1/../../../../arm-elf/lib/thumb/interwork\libc.a(mlock.o)
 .glue_7t       0x000194b4        0x0 e:/asctec_arm_sdk/winarm/bin/../lib/gcc/arm-elf/4.1.1/../../../../arm-elf/lib/thumb/interwork\libc.a(mprec.o)
 .glue_7t       0x000194b4        0x0 e:/asctec_arm_sdk/winarm/bin/../lib/gcc/arm-elf/4.1.1/../../../../arm-elf/lib/thumb/interwork\libc.a(reallocr.o)
 .glue_7t       0x000194b4        0x0 e:/asctec_arm_sdk/winarm/bin/../lib/gcc/arm-elf/4.1.1/../../../../arm-elf/lib/thumb/interwork\libc.a(s_isinf.o)
 .glue_7t       0x000194b4        0x0 e:/asctec_arm_sdk/winarm/bin/../lib/gcc/arm-elf/4.1.1/../../../../arm-elf/lib/thumb/interwork\libc.a(s_isnan.o)
 .glue_7t       0x000194b4        0x0 e:/asctec_arm_sdk/winarm/bin/../lib/gcc/arm-elf/4.1.1/../../../../arm-elf/lib/thumb/interwork\libc.a(stdio.o)
 .glue_7t       0x000194b4        0x0 e:/asctec_arm_sdk/winarm/bin/../lib/gcc/arm-elf/4.1.1/../../../../arm-elf/lib/thumb/interwork\libc.a(strcmp.o)
 .glue_7t       0x000194b4        0x0 e:/asctec_arm_sdk/winarm/bin/../lib/gcc/arm-elf/4.1.1/../../../../arm-elf/lib/thumb/interwork\libc.a(callocr.o)
 .glue_7t       0x000194b4        0x0 e:/asctec_arm_sdk/winarm/bin/../lib/gcc/arm-elf/4.1.1/../../../../arm-elf/lib/thumb/interwork\libc.a(fclose.o)
 .glue_7t       0x000194b4        0x0 e:/asctec_arm_sdk/winarm/bin/../lib/gcc/arm-elf/4.1.1/thumb/interwork\libgcc.a(_udivsi3.o)
 .glue_7t       0x000194b4        0x0 e:/asctec_arm_sdk/winarm/bin/../lib/gcc/arm-elf/4.1.1/thumb/interwork\libgcc.a(_divsi3.o)
 .glue_7t       0x000194b4        0x0 e:/asctec_arm_sdk/winarm/bin/../lib/gcc/arm-elf/4.1.1/thumb/interwork\libgcc.a(_umodsi3.o)
 .glue_7t       0x000194b4        0x0 e:/asctec_arm_sdk/winarm/bin/../lib/gcc/arm-elf/4.1.1/thumb/interwork\libgcc.a(_modsi3.o)
 .glue_7t       0x000194b4        0x0 e:/asctec_arm_sdk/winarm/bin/../lib/gcc/arm-elf/4.1.1/thumb/interwork\libgcc.a(_dvmd_tls.o)
 .glue_7t       0x000194b4        0x0 e:/asctec_arm_sdk/winarm/bin/../lib/gcc/arm-elf/4.1.1/thumb/interwork\libgcc.a(_addsubdf3.o)
 .glue_7t       0x000194b4        0x0 e:/asctec_arm_sdk/winarm/bin/../lib/gcc/arm-elf/4.1.1/thumb/interwork\libgcc.a(_muldivdf3.o)
 .glue_7t       0x000194b4        0x0 e:/asctec_arm_sdk/winarm/bin/../lib/gcc/arm-elf/4.1.1/thumb/interwork\libgcc.a(_cmpdf2.o)
 .glue_7t       0x000194b4        0x0 e:/asctec_arm_sdk/winarm/bin/../lib/gcc/arm-elf/4.1.1/thumb/interwork\libgcc.a(_fixdfsi.o)
 .glue_7t       0x000194b4        0x0 ./\libdeclination.a(declination.o)
 .glue_7t       0x000194b4        0x0 ./\libublox.a(ublox.o)
 .glue_7t       0x000194b4        0x0 e:/asctec_arm_sdk/winarm/bin/../lib/gcc/arm-elf/4.1.1/../../../../arm-elf/lib/thumb/interwork\libm.a(s_cos.o)
 .glue_7t       0x000194b4        0x0 e:/asctec_arm_sdk/winarm/bin/../lib/gcc/arm-elf/4.1.1/../../../../arm-elf/lib/thumb/interwork\libm.a(s_sin.o)
 .glue_7t       0x000194b4        0x0 e:/asctec_arm_sdk/winarm/bin/../lib/gcc/arm-elf/4.1.1/../../../../arm-elf/lib/thumb/interwork\libm.a(w_atan2.o)
 .glue_7t       0x000194b4        0x0 e:/asctec_arm_sdk/winarm/bin/../lib/gcc/arm-elf/4.1.1/../../../../arm-elf/lib/thumb/interwork\libm.a(w_sqrt.o)
 .glue_7t       0x000194b4        0x0 e:/asctec_arm_sdk/winarm/bin/../lib/gcc/arm-elf/4.1.1/../../../../arm-elf/lib/thumb/interwork\libm.a(e_atan2.o)
 .glue_7t       0x000194b4        0x0 e:/asctec_arm_sdk/winarm/bin/../lib/gcc/arm-elf/4.1.1/../../../../arm-elf/lib/thumb/interwork\libm.a(e_rem_pio2.o)
 .glue_7t       0x000194b4        0x0 e:/asctec_arm_sdk/winarm/bin/../lib/gcc/arm-elf/4.1.1/../../../../arm-elf/lib/thumb/interwork\libm.a(e_sqrt.o)
 .glue_7t       0x000194b4        0x0 e:/asctec_arm_sdk/winarm/bin/../lib/gcc/arm-elf/4.1.1/../../../../arm-elf/lib/thumb/interwork\libm.a(k_cos.o)
 .glue_7t       0x000194b4        0x0 e:/asctec_arm_sdk/winarm/bin/../lib/gcc/arm-elf/4.1.1/../../../../arm-elf/lib/thumb/interwork\libm.a(k_rem_pio2.o)
 .glue_7t       0x000194b4        0x0 e:/asctec_arm_sdk/winarm/bin/../lib/gcc/arm-elf/4.1.1/../../../../arm-elf/lib/thumb/interwork\libm.a(k_sin.o)
 .glue_7t       0x000194b4        0x0 e:/asctec_arm_sdk/winarm/bin/../lib/gcc/arm-elf/4.1.1/../../../../arm-elf/lib/thumb/interwork\libm.a(s_atan.o)
 .glue_7t       0x000194b4        0x0 e:/asctec_arm_sdk/winarm/bin/../lib/gcc/arm-elf/4.1.1/../../../../arm-elf/lib/thumb/interwork\libm.a(s_fabs.o)
 .glue_7t       0x000194b4        0x0 e:/asctec_arm_sdk/winarm/bin/../lib/gcc/arm-elf/4.1.1/../../../../arm-elf/lib/thumb/interwork\libm.a(s_floor.o)
 .glue_7t       0x000194b4        0x0 e:/asctec_arm_sdk/winarm/bin/../lib/gcc/arm-elf/4.1.1/../../../../arm-elf/lib/thumb/interwork\libm.a(s_lib_ver.o)
 .glue_7t       0x000194b4        0x0 e:/asctec_arm_sdk/winarm/bin/../lib/gcc/arm-elf/4.1.1/../../../../arm-elf/lib/thumb/interwork\libm.a(s_matherr.o)
 .glue_7t       0x000194b4        0x0 e:/asctec_arm_sdk/winarm/bin/../lib/gcc/arm-elf/4.1.1/../../../../arm-elf/lib/thumb/interwork\libm.a(s_scalbn.o)
 .glue_7t       0x000194b4        0x0 e:/asctec_arm_sdk/winarm/bin/../lib/gcc/arm-elf/4.1.1/../../../../arm-elf/lib/thumb/interwork\libm.a(s_copysign.o)
 .glue_7t       0x000194b4        0x0 e:/asctec_arm_sdk/winarm/bin/../lib/gcc/arm-elf/4.1.1/thumb/interwork\libgcc.a(_truncdfsf2.o)
 .glue_7t       0x000194b4        0x0 e:/asctec_arm_sdk/winarm/bin/../lib/gcc/arm-elf/4.1.1/thumb/interwork\libgcc.a(_addsubsf3.o)
 .glue_7t       0x000194b4        0x0 e:/asctec_arm_sdk/winarm/bin/../lib/gcc/arm-elf/4.1.1/thumb/interwork\libgcc.a(_muldivsf3.o)
 .glue_7t       0x000194b4        0x0 e:/asctec_arm_sdk/winarm/bin/../lib/gcc/arm-elf/4.1.1/thumb/interwork\libgcc.a(_cmpsf2.o)
 .glue_7t       0x000194b4        0x0 e:/asctec_arm_sdk/winarm/bin/../lib/gcc/arm-elf/4.1.1/thumb/interwork\libgcc.a(_fixsfsi.o)
 .glue_7t       0x000194b4       0x90 e:/asctec_arm_sdk/winarm/bin/../lib/gcc/arm-elf/4.1.1/../../../../arm-elf/lib/thumb/interwork\libg.a(errno.o)
                0x00019510                ___sbrk_r_change_to_arm
                0x0001953c                ___read_r_from_thumb
                0x000194fc                ____gtdf2_from_thumb
                0x000194dc                ____subdf3_from_thumb
                0x000194b8                ____ltdf2_change_to_arm
                0x000194e0                ____subdf3_change_to_arm
                0x00019508                ____gedf2_change_to_arm
                0x00019514                ___fstat_r_from_thumb
                0x00019520                __isatty_change_to_arm
                0x000194c4                ____eqdf2_from_thumb
                0x00019528                ___close_r_change_to_arm
                0x00019540                ___read_r_change_to_arm
                0x000194ec                ____fixdfsi_from_thumb
                0x000194f8                ____divdf3_change_to_arm
                0x00019504                ____gedf2_from_thumb
                0x00019518                ___fstat_r_change_to_arm
                0x000194e8                ____muldf3_change_to_arm
                0x00019530                ___lseek_r_change_to_arm
                0x000194f0                ____fixdfsi_change_to_arm
                0x000194f4                ____divdf3_from_thumb
                0x000194d8                ____adddf3_change_to_arm
                0x00019500                ____gtdf2_change_to_arm
                0x00019538                ___write_r_change_to_arm
                0x0001952c                ___lseek_r_from_thumb
                0x000194cc                ____floatsidf_from_thumb
                0x000194b4                ____ltdf2_from_thumb
                0x000194c0                ____nedf2_change_to_arm
                0x000194d4                ____adddf3_from_thumb
                0x00019524                ___close_r_from_thumb
                0x000194c8                ____eqdf2_change_to_arm
                0x0001950c                ___sbrk_r_from_thumb
                0x000194e4                ____muldf3_from_thumb
                0x000194bc                ____nedf2_from_thumb
                0x00019534                ___write_r_from_thumb
                0x000194d0                ____floatsidf_change_to_arm
                0x0001951c                __isatty_from_thumb
 *(.gcc_except_table)
 *(.rodata)
 .rodata        0x00019544        0x6 asctecCommIntfOnboard.o
 .rodata        0x0001954a       0x24 buildInfoSetup.o
 *fill*         0x0001956e        0x2 00
 .rodata        0x00019570      0x650 main.o
 .rodata        0x00019bc0       0x60 i2c.o
 .rodata        0x00019c20      0x184 e:/asctec_arm_sdk/winarm/bin/../lib/gcc/arm-elf/4.1.1/../../../../arm-elf/lib/thumb/interwork\libc.a(vfprintf.o)
 .rodata        0x00019da4       0x18 e:/asctec_arm_sdk/winarm/bin/../lib/gcc/arm-elf/4.1.1/../../../../arm-elf/lib/thumb/interwork\libc.a(dtoa.o)
 .rodata        0x00019dbc        0x4 e:/asctec_arm_sdk/winarm/bin/../lib/gcc/arm-elf/4.1.1/../../../../arm-elf/lib/thumb/interwork\libc.a(impure.o)
                0x00019dbc                _global_impure_ptr
 .rodata        0x00019dc0       0x34 e:/asctec_arm_sdk/winarm/bin/../lib/gcc/arm-elf/4.1.1/../../../../arm-elf/lib/thumb/interwork\libc.a(locale.o)
 .rodata        0x00019df4      0x124 e:/asctec_arm_sdk/winarm/bin/../lib/gcc/arm-elf/4.1.1/../../../../arm-elf/lib/thumb/interwork\libc.a(mprec.o)
                0x00019ee4                __mprec_tinytens
                0x00019df4                __mprec_tens
                0x00019ebc                __mprec_bigtens
 .rodata        0x00019f18       0xe2 ./\libublox.a(ublox.o)
 *fill*         0x00019ffa        0x2 00
 .rodata        0x00019ffc      0x188 e:/asctec_arm_sdk/winarm/bin/../lib/gcc/arm-elf/4.1.1/../../../../arm-elf/lib/thumb/interwork\libm.a(e_rem_pio2.o)
 .rodata        0x0001a184       0x50 e:/asctec_arm_sdk/winarm/bin/../lib/gcc/arm-elf/4.1.1/../../../../arm-elf/lib/thumb/interwork\libm.a(k_rem_pio2.o)
 .rodata        0x0001a1d4       0x40 e:/asctec_arm_sdk/winarm/bin/../lib/gcc/arm-elf/4.1.1/../../../../arm-elf/lib/thumb/interwork\libm.a(s_atan.o)
 .rodata        0x0001a214        0x4 e:/asctec_arm_sdk/winarm/bin/../lib/gcc/arm-elf/4.1.1/../../../../arm-elf/lib/thumb/interwork\libm.a(s_lib_ver.o)
                0x0001a214                __fdlib_version
 *(.rodata*)
 .rodata.str1.4
                0x0001a218      0x1ff sdk_telemetry.o
                                0x204 (size before relaxing)
 *fill*         0x0001a417        0x1 00
 .rodata.str1.4
                0x0001a418        0xc buildInfoSetup.o
 .rodata.str1.4
                0x0001a424        0x2 e:/asctec_arm_sdk/winarm/bin/../lib/gcc/arm-elf/4.1.1/../../../../arm-elf/lib/thumb/interwork\libc.a(puts.o)
                                  0x4 (size before relaxing)
 *fill*         0x0001a426        0x2 00
 .rodata.str1.4
                0x0001a428       0x63 e:/asctec_arm_sdk/winarm/bin/../lib/gcc/arm-elf/4.1.1/../../../../arm-elf/lib/thumb/interwork\libc.a(vfprintf.o)
                                 0x64 (size before relaxing)
 *fill*         0x0001a48b        0x1 00
 .rodata.str1.4
                0x0001a48c       0x1e e:/asctec_arm_sdk/winarm/bin/../lib/gcc/arm-elf/4.1.1/../../../../arm-elf/lib/thumb/interwork\libc.a(wctomb_r.o)
                                 0x20 (size before relaxing)
 *fill*         0x0001a4aa        0x2 00
 .rodata.str1.4
                0x0001a4ac       0x10 e:/asctec_arm_sdk/winarm/bin/../lib/gcc/arm-elf/4.1.1/../../../../arm-elf/lib/thumb/interwork\libc.a(dtoa.o)
                                 0x14 (size before relaxing)
 .rodata.str1.4
                0x0001a4bc        0x2 e:/asctec_arm_sdk/winarm/bin/../lib/gcc/arm-elf/4.1.1/../../../../arm-elf/lib/thumb/interwork\libc.a(impure.o)
                                  0x4 (size before relaxing)
 *fill*         0x0001a4be        0x2 00
 .rodata.str1.4
                0x0001a4c0        0xb e:/asctec_arm_sdk/winarm/bin/../lib/gcc/arm-elf/4.1.1/../../../../arm-elf/lib/thumb/interwork\libc.a(locale.o)
                                 0x18 (size before relaxing)
 *fill*         0x0001a4cb        0x1 00
 .rodata.str1.4
                0x0001a4cc        0x6 e:/asctec_arm_sdk/winarm/bin/../lib/gcc/arm-elf/4.1.1/../../../../arm-elf/lib/thumb/interwork\libm.a(w_atan2.o)
                                  0x8 (size before relaxing)
 *fill*         0x0001a4d2        0x2 00
 .rodata.str1.4
                0x0001a4d4        0x8 e:/asctec_arm_sdk/winarm/bin/../lib/gcc/arm-elf/4.1.1/../../../../arm-elf/lib/thumb/interwork\libm.a(w_sqrt.o)
 *(.gnu.linkonce.r.*)
                0x0001a4dc                . = ALIGN (0x4)
                0x0001a4dc                . = ALIGN (0x4)

.ctors          0x0001a4dc        0x0
                0x0001a4dc                PROVIDE (__ctors_start__, .)
 *(SORT(.ctors.*))
 *(.ctors)
                0x0001a4dc                . = ALIGN (0x4)
                0x0001a4dc                PROVIDE (__ctors_end__, .)
                0x0001a4dc                . = ALIGN (0x4)

.dtors          0x0001a4dc        0x0
                0x0001a4dc                PROVIDE (__dtors_start__, .)
 *(SORT(.dtors.*))
 *(.dtors)
                0x0001a4dc                . = ALIGN (0x4)
                0x0001a4dc                PROVIDE (__dtors_end__, .)
                0x0001a4dc                . = ALIGN (0x4)
                0x0001a4dc                . = ALIGN (0x4)
                0x0001a4dc                _etext = .
                0x0001a4dc                PROVIDE (etext, .)

.data           0x40000000      0xda8 load address 0x0001a4dc
                0x40000000                _data = .
 *(.vectmapped)
                0x40000000                . = ALIGN (0x4)
 *(.fastrun)
                0x40000000                . = ALIGN (0x4)
                0x40000000                . = ALIGN (0x4)
 *(.data)
 .data          0x40000000        0x0 Common_WinARM/src/Startup.o
 .data          0x40000000        0x0 Common_WinARM/src/swi_handler.o
 .data          0x40000000        0x0 LL_HL_comm.o
 .data          0x40000000        0x0 mymath.o
 .data          0x40000000        0x0 gpsmath.o
 .data          0x40000000        0x0 sdk.o
 .data          0x40000000        0x0 sdk_telemetry.o
 .data          0x40000000        0xc buzzer.o
                0x40000004                ALARM_battery_warning_voltage_low
                0x40000002                ALARM_battery_warning_voltage_high
                0x40000000                buzzer_warnings
 .data          0x4000000c        0x0 lpc_aci_eeprom.o
 .data          0x4000000c       0x14 asctecCommIntfOnboard.o
                0x4000000c                aciVarPacketTransmissionRate
                0x4000001e                aciMagicCodePar
                0x40000012                entry_exist
                0x4000001c                aciMagicCodeCmd
                0x40000018                aciHeartBeatTimeout
                0x4000001a                aciMagicCodeVar
                0x40000014                aciEngineRate
 .data          0x40000020        0x0 buildInfoSetup.o
 .data          0x40000020        0x3 main.o
                0x40000020                DataOutputsPerSecond
                0x40000021                PTU_cam_option_4_version
 .data          0x40000023        0x0 hardware.o
 .data          0x40000023        0x0 system.o
 .data          0x40000023        0x7 uart.o
                0x40000027                stopstring
                0x40000024                startstring
                0x40000023                chksum_trigger
 .data          0x4000002a        0x0 syscalls.o
 .data          0x4000002a        0x0 i2c.o
 .data          0x4000002a        0x0 i2c1.o
 .data          0x4000002a        0x0 Common_WinARM/src/irq.o
 .data          0x4000002a        0x0 adc.o
 .data          0x4000002a        0x3 ssp.o
                0x4000002b                SSP_receiption_complete
                0x4000002c                data_sent_to_HL
                0x4000002a                data_sent_to_LL
 .data          0x4000002d        0x0 pelican_ptu.o
 .data          0x4000002d        0x0 jetiTelemetry.o
 .data          0x4000002d        0x0 LPC2k_ee.o
 .data          0x4000002d        0x0 e:/asctec_arm_sdk/winarm/bin/../lib/gcc/arm-elf/4.1.1/../../../../arm-elf/lib/thumb/interwork\libc.a(memcpy.o)
 .data          0x4000002d        0x0 e:/asctec_arm_sdk/winarm/bin/../lib/gcc/arm-elf/4.1.1/../../../../arm-elf/lib/thumb/interwork\libc.a(printf.o)
 .data          0x4000002d        0x0 e:/asctec_arm_sdk/winarm/bin/../lib/gcc/arm-elf/4.1.1/../../../../arm-elf/lib/thumb/interwork\libc.a(puts.o)
 .data          0x4000002d        0x0 e:/asctec_arm_sdk/winarm/bin/../lib/gcc/arm-elf/4.1.1/../../../../arm-elf/lib/thumb/interwork\libc.a(sprintf.o)
 .data          0x4000002d        0x0 e:/asctec_arm_sdk/winarm/bin/../lib/gcc/arm-elf/4.1.1/../../../../arm-elf/lib/thumb/interwork\libc.a(strcpy.o)
 .data          0x4000002d        0x0 e:/asctec_arm_sdk/winarm/bin/../lib/gcc/arm-elf/4.1.1/../../../../arm-elf/lib/thumb/interwork\libc.a(strlen.o)
 .data          0x4000002d        0x0 e:/asctec_arm_sdk/winarm/bin/../lib/gcc/arm-elf/4.1.1/../../../../arm-elf/lib/thumb/interwork\libc.a(vfprintf.o)
 .data          0x4000002d        0x0 e:/asctec_arm_sdk/winarm/bin/../lib/gcc/arm-elf/4.1.1/../../../../arm-elf/lib/thumb/interwork\libc.a(wcrtomb.o)
 .data          0x4000002d        0x0 e:/asctec_arm_sdk/winarm/bin/../lib/gcc/arm-elf/4.1.1/../../../../arm-elf/lib/thumb/interwork\libc.a(wcsrtombs.o)
 .data          0x4000002d        0x0 e:/asctec_arm_sdk/winarm/bin/../lib/gcc/arm-elf/4.1.1/../../../../arm-elf/lib/thumb/interwork\libc.a(wctomb_r.o)
 .data          0x4000002d        0x0 e:/asctec_arm_sdk/winarm/bin/../lib/gcc/arm-elf/4.1.1/../../../../arm-elf/lib/thumb/interwork\libc.a(wsetup.o)
 .data          0x4000002d        0x0 e:/asctec_arm_sdk/winarm/bin/../lib/gcc/arm-elf/4.1.1/../../../../arm-elf/lib/thumb/interwork\libc.a(dtoa.o)
 .data          0x4000002d        0x0 e:/asctec_arm_sdk/winarm/bin/../lib/gcc/arm-elf/4.1.1/../../../../arm-elf/lib/thumb/interwork\libc.a(fflush.o)
 .data          0x4000002d        0x0 e:/asctec_arm_sdk/winarm/bin/../lib/gcc/arm-elf/4.1.1/../../../../arm-elf/lib/thumb/interwork\libc.a(findfp.o)
 .data          0x4000002d        0x0 e:/asctec_arm_sdk/winarm/bin/../lib/gcc/arm-elf/4.1.1/../../../../arm-elf/lib/thumb/interwork\libc.a(freer.o)
 .data          0x4000002d        0x0 e:/asctec_arm_sdk/winarm/bin/../lib/gcc/arm-elf/4.1.1/../../../../arm-elf/lib/thumb/interwork\libc.a(fvwrite.o)
 .data          0x4000002d        0x0 e:/asctec_arm_sdk/winarm/bin/../lib/gcc/arm-elf/4.1.1/../../../../arm-elf/lib/thumb/interwork\libc.a(fwalk.o)
 *fill*         0x4000002d        0x3 00
 .data          0x40000030      0x404 e:/asctec_arm_sdk/winarm/bin/../lib/gcc/arm-elf/4.1.1/../../../../arm-elf/lib/thumb/interwork\libc.a(impure.o)
                0x40000030                _impure_ptr
 .data          0x40000434       0x10 e:/asctec_arm_sdk/winarm/bin/../lib/gcc/arm-elf/4.1.1/../../../../arm-elf/lib/thumb/interwork\libc.a(locale.o)
                0x40000434                __mb_cur_max
                0x40000438                __lc_ctype
 .data          0x40000444        0x0 e:/asctec_arm_sdk/winarm/bin/../lib/gcc/arm-elf/4.1.1/../../../../arm-elf/lib/thumb/interwork\libc.a(makebuf.o)
 .data          0x40000444      0x410 e:/asctec_arm_sdk/winarm/bin/../lib/gcc/arm-elf/4.1.1/../../../../arm-elf/lib/thumb/interwork\libc.a(mallocr.o)
                0x40000850                __malloc_sbrk_base
                0x40000444                __malloc_av_
                0x4000084c                __malloc_trim_threshold
 .data          0x40000854        0x0 e:/asctec_arm_sdk/winarm/bin/../lib/gcc/arm-elf/4.1.1/../../../../arm-elf/lib/thumb/interwork\libc.a(memchr.o)
 .data          0x40000854        0x0 e:/asctec_arm_sdk/winarm/bin/../lib/gcc/arm-elf/4.1.1/../../../../arm-elf/lib/thumb/interwork\libc.a(memmove.o)
 .data          0x40000854        0x0 e:/asctec_arm_sdk/winarm/bin/../lib/gcc/arm-elf/4.1.1/../../../../arm-elf/lib/thumb/interwork\libc.a(memset.o)
 .data          0x40000854        0x0 e:/asctec_arm_sdk/winarm/bin/../lib/gcc/arm-elf/4.1.1/../../../../arm-elf/lib/thumb/interwork\libc.a(mlock.o)
 .data          0x40000854        0x0 e:/asctec_arm_sdk/winarm/bin/../lib/gcc/arm-elf/4.1.1/../../../../arm-elf/lib/thumb/interwork\libc.a(mprec.o)
 .data          0x40000854        0x0 e:/asctec_arm_sdk/winarm/bin/../lib/gcc/arm-elf/4.1.1/../../../../arm-elf/lib/thumb/interwork\libc.a(reallocr.o)
 .data          0x40000854        0x0 e:/asctec_arm_sdk/winarm/bin/../lib/gcc/arm-elf/4.1.1/../../../../arm-elf/lib/thumb/interwork\libc.a(s_isinf.o)
 .data          0x40000854        0x0 e:/asctec_arm_sdk/winarm/bin/../lib/gcc/arm-elf/4.1.1/../../../../arm-elf/lib/thumb/interwork\libc.a(s_isnan.o)
 .data          0x40000854        0x0 e:/asctec_arm_sdk/winarm/bin/../lib/gcc/arm-elf/4.1.1/../../../../arm-elf/lib/thumb/interwork\libc.a(stdio.o)
 .data          0x40000854        0x0 e:/asctec_arm_sdk/winarm/bin/../lib/gcc/arm-elf/4.1.1/../../../../arm-elf/lib/thumb/interwork\libc.a(strcmp.o)
 .data          0x40000854        0x0 e:/asctec_arm_sdk/winarm/bin/../lib/gcc/arm-elf/4.1.1/../../../../arm-elf/lib/thumb/interwork\libc.a(callocr.o)
 .data          0x40000854        0x0 e:/asctec_arm_sdk/winarm/bin/../lib/gcc/arm-elf/4.1.1/../../../../arm-elf/lib/thumb/interwork\libc.a(fclose.o)
 .data          0x40000854        0x0 e:/asctec_arm_sdk/winarm/bin/../lib/gcc/arm-elf/4.1.1/thumb/interwork\libgcc.a(_udivsi3.o)
 .data          0x40000854        0x0 e:/asctec_arm_sdk/winarm/bin/../lib/gcc/arm-elf/4.1.1/thumb/interwork\libgcc.a(_divsi3.o)
 .data          0x40000854        0x0 e:/asctec_arm_sdk/winarm/bin/../lib/gcc/arm-elf/4.1.1/thumb/interwork\libgcc.a(_umodsi3.o)
 .data          0x40000854        0x0 e:/asctec_arm_sdk/winarm/bin/../lib/gcc/arm-elf/4.1.1/thumb/interwork\libgcc.a(_modsi3.o)
 .data          0x40000854        0x0 e:/asctec_arm_sdk/winarm/bin/../lib/gcc/arm-elf/4.1.1/thumb/interwork\libgcc.a(_dvmd_tls.o)
 .data          0x40000854        0x0 e:/asctec_arm_sdk/winarm/bin/../lib/gcc/arm-elf/4.1.1/thumb/interwork\libgcc.a(_addsubdf3.o)
 .data          0x40000854        0x0 e:/asctec_arm_sdk/winarm/bin/../lib/gcc/arm-elf/4.1.1/thumb/interwork\libgcc.a(_muldivdf3.o)
 .data          0x40000854        0x0 e:/asctec_arm_sdk/winarm/bin/../lib/gcc/arm-elf/4.1.1/thumb/interwork\libgcc.a(_cmpdf2.o)
 .data          0x40000854        0x0 e:/asctec_arm_sdk/winarm/bin/../lib/gcc/arm-elf/4.1.1/thumb/interwork\libgcc.a(_fixdfsi.o)
 .data          0x40000854      0x54c ./\libdeclination.a(declination.o)
 .data          0x40000da0        0x8 ./\libublox.a(ublox.o)
                0x40000da0                gpsLEDTrigger
 .data          0x40000da8        0x0 e:/asctec_arm_sdk/winarm/bin/../lib/gcc/arm-elf/4.1.1/../../../../arm-elf/lib/thumb/interwork\libm.a(s_cos.o)
 .data          0x40000da8        0x0 e:/asctec_arm_sdk/winarm/bin/../lib/gcc/arm-elf/4.1.1/../../../../arm-elf/lib/thumb/interwork\libm.a(s_sin.o)
 .data          0x40000da8        0x0 e:/asctec_arm_sdk/winarm/bin/../lib/gcc/arm-elf/4.1.1/../../../../arm-elf/lib/thumb/interwork\libm.a(w_atan2.o)
 .data          0x40000da8        0x0 e:/asctec_arm_sdk/winarm/bin/../lib/gcc/arm-elf/4.1.1/../../../../arm-elf/lib/thumb/interwork\libm.a(w_sqrt.o)
 .data          0x40000da8        0x0 e:/asctec_arm_sdk/winarm/bin/../lib/gcc/arm-elf/4.1.1/../../../../arm-elf/lib/thumb/interwork\libm.a(e_atan2.o)
 .data          0x40000da8        0x0 e:/asctec_arm_sdk/winarm/bin/../lib/gcc/arm-elf/4.1.1/../../../../arm-elf/lib/thumb/interwork\libm.a(e_rem_pio2.o)
 .data          0x40000da8        0x0 e:/asctec_arm_sdk/winarm/bin/../lib/gcc/arm-elf/4.1.1/../../../../arm-elf/lib/thumb/interwork\libm.a(e_sqrt.o)
 .data          0x40000da8        0x0 e:/asctec_arm_sdk/winarm/bin/../lib/gcc/arm-elf/4.1.1/../../../../arm-elf/lib/thumb/interwork\libm.a(k_cos.o)
 .data          0x40000da8        0x0 e:/asctec_arm_sdk/winarm/bin/../lib/gcc/arm-elf/4.1.1/../../../../arm-elf/lib/thumb/interwork\libm.a(k_rem_pio2.o)
 .data          0x40000da8        0x0 e:/asctec_arm_sdk/winarm/bin/../lib/gcc/arm-elf/4.1.1/../../../../arm-elf/lib/thumb/interwork\libm.a(k_sin.o)
 .data          0x40000da8        0x0 e:/asctec_arm_sdk/winarm/bin/../lib/gcc/arm-elf/4.1.1/../../../../arm-elf/lib/thumb/interwork\libm.a(s_atan.o)
 .data          0x40000da8        0x0 e:/asctec_arm_sdk/winarm/bin/../lib/gcc/arm-elf/4.1.1/../../../../arm-elf/lib/thumb/interwork\libm.a(s_fabs.o)
 .data          0x40000da8        0x0 e:/asctec_arm_sdk/winarm/bin/../lib/gcc/arm-elf/4.1.1/../../../../arm-elf/lib/thumb/interwork\libm.a(s_floor.o)
 .data          0x40000da8        0x0 e:/asctec_arm_sdk/winarm/bin/../lib/gcc/arm-elf/4.1.1/../../../../arm-elf/lib/thumb/interwork\libm.a(s_lib_ver.o)
 .data          0x40000da8        0x0 e:/asctec_arm_sdk/winarm/bin/../lib/gcc/arm-elf/4.1.1/../../../../arm-elf/lib/thumb/interwork\libm.a(s_matherr.o)
 .data          0x40000da8        0x0 e:/asctec_arm_sdk/winarm/bin/../lib/gcc/arm-elf/4.1.1/../../../../arm-elf/lib/thumb/interwork\libm.a(s_scalbn.o)
 .data          0x40000da8        0x0 e:/asctec_arm_sdk/winarm/bin/../lib/gcc/arm-elf/4.1.1/../../../../arm-elf/lib/thumb/interwork\libm.a(s_copysign.o)
 .data          0x40000da8        0x0 e:/asctec_arm_sdk/winarm/bin/../lib/gcc/arm-elf/4.1.1/thumb/interwork\libgcc.a(_truncdfsf2.o)
 .data          0x40000da8        0x0 e:/asctec_arm_sdk/winarm/bin/../lib/gcc/arm-elf/4.1.1/thumb/interwork\libgcc.a(_addsubsf3.o)
 .data          0x40000da8        0x0 e:/asctec_arm_sdk/winarm/bin/../lib/gcc/arm-elf/4.1.1/thumb/interwork\libgcc.a(_muldivsf3.o)
 .data          0x40000da8        0x0 e:/asctec_arm_sdk/winarm/bin/../lib/gcc/arm-elf/4.1.1/thumb/interwork\libgcc.a(_cmpsf2.o)
 .data          0x40000da8        0x0 e:/asctec_arm_sdk/winarm/bin/../lib/gcc/arm-elf/4.1.1/thumb/interwork\libgcc.a(_fixsfsi.o)
 .data          0x40000da8        0x0 e:/asctec_arm_sdk/winarm/bin/../lib/gcc/arm-elf/4.1.1/../../../../arm-elf/lib/thumb/interwork\libg.a(errno.o)
 *(.data.*)
 *(.gnu.linkonce.d*)
                0x40000da8                . = ALIGN (0x4)
                0x40000da8                . = ALIGN (0x4)
                0x40000da8                _edata = .
                0x40000da8                PROVIDE (edata, .)

.bss            0x40000da8     0x480c
                0x40000da8                __bss_start = .
                0x40000da8                __bss_start__ = .
 *(.bss)
 .bss           0x40000da8        0x0 Common_WinARM/src/Startup.o
 .bss           0x40000da8        0x0 Common_WinARM/src/swi_handler.o
 .bss           0x40000da8       0x24 LL_HL_comm.o
                0x40000db2                transmitBuildInfoTrigger
                0x40000dae                wpCtrlNavStatus
                0x40000dac                wpCtrlAckTrigger
                0x40000dab                wpCtrlWpCmdUpdated
                0x40000db0                wpCtrlDistToWp
                0x40000daa                wpCtrlWpCmd
                0x40000da8                SSP_ack
 .bss           0x40000dcc        0x0 mymath.o
 .bss           0x40000dcc        0x4 gpsmath.o
                0x40000dcc                gpsDataOkTrigger
 .bss           0x40000dd0       0x20 sdk.o
                0x40000dd1                wpExampleActive
                0x40000dd2                emergencyModeUpdate
                0x40000dd0                wpExampleWpNr
 .bss           0x40000df0        0x3 sdk_telemetry.o
 *fill*         0x40000df3        0x1 00
 .bss           0x40000df4       0x14 buzzer.o
 .bss           0x40000e08        0x4 lpc_aci_eeprom.o
                0x40000e08                anz_param_saved
 .bss           0x40000e0c       0x74 asctecCommIntfOnboard.o
                0x40000e58                aciHeartBeatCnt
                0x40000e64                aciAddDatatoFlashCallback
                0x40000e10                aciListCmdCount
                0x40000e3a                aciParPacketMagicCode
                0x40000e74                aciSendSingleCount
                0x40000e60                aciReadWriteEndCallback
                0x40000e2e                aciCmdPacketMagicCode
                0x40000e68                aciReadParafromFlashCallback
                0x40000e5a                aciInhibitPacketTransmission
                0x40000e0c                aciListVarCount
                0x40000e31                aciCmdPacketWithACK
                0x40000e56                aciTxRingBufferReadPtr
                0x40000e34                aciCmdPacketSendAck
                0x40000e76                aciSendSingleNextBufferCount
                0x40000e48                aciEngineRateCounter
                0x40000e37                aciCmdPacketReceived
                0x40000e5c                aciReadWriteStartCallback
                0x40000e14                aciListParCount
                0x40000e1c                aciVarPacketCurrentSize
                0x40000e46                aciParamSaveIt
                0x40000e3d                aciParPacketSendAck
                0x40000e22                aciVarPacketNumberOfVars
                0x40000e54                aciTxRingBufferWritePtr
                0x40000e18                aciVarPacketMagicCode
                0x40000e28                aciVarPacketUpdated
                0x40000e70                aciWriteParatoFlashCallback
                0x40000e40                aciParamPacketReceived
                0x40000e43                aciParPacketRequest
                0x40000e6c                aciSaveParaCallback
 .bss           0x40000e80        0x0 buildInfoSetup.o
 .bss           0x40000e80       0x28 main.o
                0x40000e90                GPS_timeout
                0x40000e84                cnt
                0x40000e88                mainloop_cnt
                0x40000e99                fireflyLedEnabled
                0x40000e80                int_cnt
                0x40000e98                SYSTEM_initialized
                0x40000e94                trigger_cnt
                0x40000e8c                mainloop_trigger
                0x40000e9a                mainloop_overflows
 .bss           0x40000ea8        0x0 hardware.o
 .bss           0x40000ea8        0x0 system.o
 .bss           0x40000ea8      0x32c uart.o
                0x40000eaf                UART1_syncstate
                0x40000ead                baudrate1_change
                0x40000eaa                transmission_running
                0x40000eac                trigger_transmission
                0x40000eb4                UART1_rxcount
                0x40000ea8                data_requested
                0x40000ea9                chksum_to_check
                0x40000eb0                UART_rxcount
                0x40000eae                UART_syncstate
                0x40000eab                transmission1_running
                0x40000eb8                UART_CalibDoneFlag
 .bss           0x400011d4        0x4 syscalls.o
 .bss           0x400011d8       0x14 i2c.o
                0x400011e4                RdIndex
                0x400011d8                I2CMasterState
                0x400011dc                I2CSlaveState
                0x400011e0                I2CCount
                0x400011e8                WrIndex
 .bss           0x400011ec       0x14 i2c1.o
                0x400011f4                WrIndex1
                0x400011f0                I2C1Count
                0x400011ec                I2C1MasterState
                0x400011f8                lastI2c1Error
 .bss           0x40001200        0x0 Common_WinARM/src/irq.o
 .bss           0x40001200        0x8 adc.o
                0x40001204                ADC1IntDone
                0x40001200                ADC0IntDone
 .bss           0x40001208        0x4 ssp.o
                0x40001208                SSP_trans_cnt
 .bss           0x4000120c       0x24 pelican_ptu.o
                0x40001214                PTU_enable_plain_ch7_to_servo
                0x4000120c                PTU_cam_angle_roll_offset
                0x40001210                PTU_cam_angle_pitch_offset
 .bss           0x40001230        0x5 jetiTelemetry.o
                0x40001232                jetiTriggerTextSync
                0x40001234                jetiKey
                0x40001231                jetiAlarmType
                0x40001233                jetiKeyChanged
                0x40001230                jetiAlarm
 .bss           0x40001235        0x0 LPC2k_ee.o
 .bss           0x40001235        0x0 e:/asctec_arm_sdk/winarm/bin/../lib/gcc/arm-elf/4.1.1/../../../../arm-elf/lib/thumb/interwork\libc.a(memcpy.o)
 .bss           0x40001235        0x0 e:/asctec_arm_sdk/winarm/bin/../lib/gcc/arm-elf/4.1.1/../../../../arm-elf/lib/thumb/interwork\libc.a(printf.o)
 .bss           0x40001235        0x0 e:/asctec_arm_sdk/winarm/bin/../lib/gcc/arm-elf/4.1.1/../../../../arm-elf/lib/thumb/interwork\libc.a(puts.o)
 .bss           0x40001235        0x0 e:/asctec_arm_sdk/winarm/bin/../lib/gcc/arm-elf/4.1.1/../../../../arm-elf/lib/thumb/interwork\libc.a(sprintf.o)
 .bss           0x40001235        0x0 e:/asctec_arm_sdk/winarm/bin/../lib/gcc/arm-elf/4.1.1/../../../../arm-elf/lib/thumb/interwork\libc.a(strcpy.o)
 .bss           0x40001235        0x0 e:/asctec_arm_sdk/winarm/bin/../lib/gcc/arm-elf/4.1.1/../../../../arm-elf/lib/thumb/interwork\libc.a(strlen.o)
 .bss           0x40001235        0x0 e:/asctec_arm_sdk/winarm/bin/../lib/gcc/arm-elf/4.1.1/../../../../arm-elf/lib/thumb/interwork\libc.a(vfprintf.o)
 .bss           0x40001235        0x0 e:/asctec_arm_sdk/winarm/bin/../lib/gcc/arm-elf/4.1.1/../../../../arm-elf/lib/thumb/interwork\libc.a(wcrtomb.o)
 .bss           0x40001235        0x0 e:/asctec_arm_sdk/winarm/bin/../lib/gcc/arm-elf/4.1.1/../../../../arm-elf/lib/thumb/interwork\libc.a(wcsrtombs.o)
 .bss           0x40001235        0x0 e:/asctec_arm_sdk/winarm/bin/../lib/gcc/arm-elf/4.1.1/../../../../arm-elf/lib/thumb/interwork\libc.a(wctomb_r.o)
 .bss           0x40001235        0x0 e:/asctec_arm_sdk/winarm/bin/../lib/gcc/arm-elf/4.1.1/../../../../arm-elf/lib/thumb/interwork\libc.a(wsetup.o)
 .bss           0x40001235        0x0 e:/asctec_arm_sdk/winarm/bin/../lib/gcc/arm-elf/4.1.1/../../../../arm-elf/lib/thumb/interwork\libc.a(dtoa.o)
 .bss           0x40001235        0x0 e:/asctec_arm_sdk/winarm/bin/../lib/gcc/arm-elf/4.1.1/../../../../arm-elf/lib/thumb/interwork\libc.a(fflush.o)
 .bss           0x40001235        0x0 e:/asctec_arm_sdk/winarm/bin/../lib/gcc/arm-elf/4.1.1/../../../../arm-elf/lib/thumb/interwork\libc.a(findfp.o)
 .bss           0x40001235        0x0 e:/asctec_arm_sdk/winarm/bin/../lib/gcc/arm-elf/4.1.1/../../../../arm-elf/lib/thumb/interwork\libc.a(freer.o)
 .bss           0x40001235        0x0 e:/asctec_arm_sdk/winarm/bin/../lib/gcc/arm-elf/4.1.1/../../../../arm-elf/lib/thumb/interwork\libc.a(fvwrite.o)
 .bss           0x40001235        0x0 e:/asctec_arm_sdk/winarm/bin/../lib/gcc/arm-elf/4.1.1/../../../../arm-elf/lib/thumb/interwork\libc.a(fwalk.o)
 .bss           0x40001235        0x0 e:/asctec_arm_sdk/winarm/bin/../lib/gcc/arm-elf/4.1.1/../../../../arm-elf/lib/thumb/interwork\libc.a(impure.o)
 *fill*         0x40001235        0x3 00
 .bss           0x40001238        0xc e:/asctec_arm_sdk/winarm/bin/../lib/gcc/arm-elf/4.1.1/../../../../arm-elf/lib/thumb/interwork\libc.a(locale.o)
                0x40001238                __nlocale_changed
                0x4000123c                __mlocale_changed
                0x40001240                _PathLocale
 .bss           0x40001244        0x0 e:/asctec_arm_sdk/winarm/bin/../lib/gcc/arm-elf/4.1.1/../../../../arm-elf/lib/thumb/interwork\libc.a(makebuf.o)
 .bss           0x40001244       0x34 e:/asctec_arm_sdk/winarm/bin/../lib/gcc/arm-elf/4.1.1/../../../../arm-elf/lib/thumb/interwork\libc.a(mallocr.o)
                0x40001244                __malloc_top_pad
                0x40001248                __malloc_max_sbrked_mem
                0x40001250                __malloc_current_mallinfo
                0x4000124c                __malloc_max_total_mem
 .bss           0x40001278        0x0 e:/asctec_arm_sdk/winarm/bin/../lib/gcc/arm-elf/4.1.1/../../../../arm-elf/lib/thumb/interwork\libc.a(memchr.o)
 .bss           0x40001278        0x0 e:/asctec_arm_sdk/winarm/bin/../lib/gcc/arm-elf/4.1.1/../../../../arm-elf/lib/thumb/interwork\libc.a(memmove.o)
 .bss           0x40001278        0x0 e:/asctec_arm_sdk/winarm/bin/../lib/gcc/arm-elf/4.1.1/../../../../arm-elf/lib/thumb/interwork\libc.a(memset.o)
 .bss           0x40001278        0x0 e:/asctec_arm_sdk/winarm/bin/../lib/gcc/arm-elf/4.1.1/../../../../arm-elf/lib/thumb/interwork\libc.a(mlock.o)
 .bss           0x40001278        0x0 e:/asctec_arm_sdk/winarm/bin/../lib/gcc/arm-elf/4.1.1/../../../../arm-elf/lib/thumb/interwork\libc.a(mprec.o)
 .bss           0x40001278        0x0 e:/asctec_arm_sdk/winarm/bin/../lib/gcc/arm-elf/4.1.1/../../../../arm-elf/lib/thumb/interwork\libc.a(reallocr.o)
 .bss           0x40001278        0x0 e:/asctec_arm_sdk/winarm/bin/../lib/gcc/arm-elf/4.1.1/../../../../arm-elf/lib/thumb/interwork\libc.a(s_isinf.o)
 .bss           0x40001278        0x0 e:/asctec_arm_sdk/winarm/bin/../lib/gcc/arm-elf/4.1.1/../../../../arm-elf/lib/thumb/interwork\libc.a(s_isnan.o)
 .bss           0x40001278        0x0 e:/asctec_arm_sdk/winarm/bin/../lib/gcc/arm-elf/4.1.1/../../../../arm-elf/lib/thumb/interwork\libc.a(stdio.o)
 .bss           0x40001278        0x0 e:/asctec_arm_sdk/winarm/bin/../lib/gcc/arm-elf/4.1.1/../../../../arm-elf/lib/thumb/interwork\libc.a(strcmp.o)
 .bss           0x40001278        0x0 e:/asctec_arm_sdk/winarm/bin/../lib/gcc/arm-elf/4.1.1/../../../../arm-elf/lib/thumb/interwork\libc.a(callocr.o)
 .bss           0x40001278        0x0 e:/asctec_arm_sdk/winarm/bin/../lib/gcc/arm-elf/4.1.1/../../../../arm-elf/lib/thumb/interwork\libc.a(fclose.o)
 .bss           0x40001278        0x0 e:/asctec_arm_sdk/winarm/bin/../lib/gcc/arm-elf/4.1.1/thumb/interwork\libgcc.a(_udivsi3.o)
 .bss           0x40001278        0x0 e:/asctec_arm_sdk/winarm/bin/../lib/gcc/arm-elf/4.1.1/thumb/interwork\libgcc.a(_divsi3.o)
 .bss           0x40001278        0x0 e:/asctec_arm_sdk/winarm/bin/../lib/gcc/arm-elf/4.1.1/thumb/interwork\libgcc.a(_umodsi3.o)
 .bss           0x40001278        0x0 e:/asctec_arm_sdk/winarm/bin/../lib/gcc/arm-elf/4.1.1/thumb/interwork\libgcc.a(_modsi3.o)
 .bss           0x40001278        0x0 e:/asctec_arm_sdk/winarm/bin/../lib/gcc/arm-elf/4.1.1/thumb/interwork\libgcc.a(_dvmd_tls.o)
 .bss           0x40001278        0x0 e:/asctec_arm_sdk/winarm/bin/../lib/gcc/arm-elf/4.1.1/thumb/interwork\libgcc.a(_addsubdf3.o)
 .bss           0x40001278        0x0 e:/asctec_arm_sdk/winarm/bin/../lib/gcc/arm-elf/4.1.1/thumb/interwork\libgcc.a(_muldivdf3.o)
 .bss           0x40001278        0x0 e:/asctec_arm_sdk/winarm/bin/../lib/gcc/arm-elf/4.1.1/thumb/interwork\libgcc.a(_cmpdf2.o)
 .bss           0x40001278        0x0 e:/asctec_arm_sdk/winarm/bin/../lib/gcc/arm-elf/4.1.1/thumb/interwork\libgcc.a(_fixdfsi.o)
 .bss           0x40001278      0xcc4 ./\libdeclination.a(declination.o)
                0x40001278                estimatedDeclination
                0x4000127c                estimatedInclination
                0x40001280                declinationAvailable
 .bss           0x40001f3c       0x28 ./\libublox.a(ublox.o)
                0x40001f48                urVersionCheck
                0x40001f46                urAckId
                0x40001f4a                urMsgCnt
                0x40001f3c                urTimeCnt
                0x40001f4c                ubloxVersion
                0x40001f44                urAckReceived
                0x40001f47                urConfigMessageReceived
                0x40001f40                GPS_raw_data_size
                0x40001f45                urAckClass
 .bss           0x40001f64        0x0 e:/asctec_arm_sdk/winarm/bin/../lib/gcc/arm-elf/4.1.1/../../../../arm-elf/lib/thumb/interwork\libm.a(s_cos.o)
 .bss           0x40001f64        0x0 e:/asctec_arm_sdk/winarm/bin/../lib/gcc/arm-elf/4.1.1/../../../../arm-elf/lib/thumb/interwork\libm.a(s_sin.o)
 .bss           0x40001f64        0x0 e:/asctec_arm_sdk/winarm/bin/../lib/gcc/arm-elf/4.1.1/../../../../arm-elf/lib/thumb/interwork\libm.a(w_atan2.o)
 .bss           0x40001f64        0x0 e:/asctec_arm_sdk/winarm/bin/../lib/gcc/arm-elf/4.1.1/../../../../arm-elf/lib/thumb/interwork\libm.a(w_sqrt.o)
 .bss           0x40001f64        0x0 e:/asctec_arm_sdk/winarm/bin/../lib/gcc/arm-elf/4.1.1/../../../../arm-elf/lib/thumb/interwork\libm.a(e_atan2.o)
 .bss           0x40001f64        0x0 e:/asctec_arm_sdk/winarm/bin/../lib/gcc/arm-elf/4.1.1/../../../../arm-elf/lib/thumb/interwork\libm.a(e_rem_pio2.o)
 .bss           0x40001f64        0x0 e:/asctec_arm_sdk/winarm/bin/../lib/gcc/arm-elf/4.1.1/../../../../arm-elf/lib/thumb/interwork\libm.a(e_sqrt.o)
 .bss           0x40001f64        0x0 e:/asctec_arm_sdk/winarm/bin/../lib/gcc/arm-elf/4.1.1/../../../../arm-elf/lib/thumb/interwork\libm.a(k_cos.o)
 .bss           0x40001f64        0x0 e:/asctec_arm_sdk/winarm/bin/../lib/gcc/arm-elf/4.1.1/../../../../arm-elf/lib/thumb/interwork\libm.a(k_rem_pio2.o)
 .bss           0x40001f64        0x0 e:/asctec_arm_sdk/winarm/bin/../lib/gcc/arm-elf/4.1.1/../../../../arm-elf/lib/thumb/interwork\libm.a(k_sin.o)
 .bss           0x40001f64        0x0 e:/asctec_arm_sdk/winarm/bin/../lib/gcc/arm-elf/4.1.1/../../../../arm-elf/lib/thumb/interwork\libm.a(s_atan.o)
 .bss           0x40001f64        0x0 e:/asctec_arm_sdk/winarm/bin/../lib/gcc/arm-elf/4.1.1/../../../../arm-elf/lib/thumb/interwork\libm.a(s_fabs.o)
 .bss           0x40001f64        0x0 e:/asctec_arm_sdk/winarm/bin/../lib/gcc/arm-elf/4.1.1/../../../../arm-elf/lib/thumb/interwork\libm.a(s_floor.o)
 .bss           0x40001f64        0x0 e:/asctec_arm_sdk/winarm/bin/../lib/gcc/arm-elf/4.1.1/../../../../arm-elf/lib/thumb/interwork\libm.a(s_lib_ver.o)
 .bss           0x40001f64        0x0 e:/asctec_arm_sdk/winarm/bin/../lib/gcc/arm-elf/4.1.1/../../../../arm-elf/lib/thumb/interwork\libm.a(s_matherr.o)
 .bss           0x40001f64        0x0 e:/asctec_arm_sdk/winarm/bin/../lib/gcc/arm-elf/4.1.1/../../../../arm-elf/lib/thumb/interwork\libm.a(s_scalbn.o)
 .bss           0x40001f64        0x0 e:/asctec_arm_sdk/winarm/bin/../lib/gcc/arm-elf/4.1.1/../../../../arm-elf/lib/thumb/interwork\libm.a(s_copysign.o)
 .bss           0x40001f64        0x0 e:/asctec_arm_sdk/winarm/bin/../lib/gcc/arm-elf/4.1.1/thumb/interwork\libgcc.a(_truncdfsf2.o)
 .bss           0x40001f64        0x0 e:/asctec_arm_sdk/winarm/bin/../lib/gcc/arm-elf/4.1.1/thumb/interwork\libgcc.a(_addsubsf3.o)
 .bss           0x40001f64        0x0 e:/asctec_arm_sdk/winarm/bin/../lib/gcc/arm-elf/4.1.1/thumb/interwork\libgcc.a(_muldivsf3.o)
 .bss           0x40001f64        0x0 e:/asctec_arm_sdk/winarm/bin/../lib/gcc/arm-elf/4.1.1/thumb/interwork\libgcc.a(_cmpsf2.o)
 .bss           0x40001f64        0x0 e:/asctec_arm_sdk/winarm/bin/../lib/gcc/arm-elf/4.1.1/thumb/interwork\libgcc.a(_fixsfsi.o)
 .bss           0x40001f64        0x0 e:/asctec_arm_sdk/winarm/bin/../lib/gcc/arm-elf/4.1.1/../../../../arm-elf/lib/thumb/interwork\libg.a(errno.o)
 *(.gnu.linkonce.b*)
 *(COMMON)
 COMMON         0x40001f64       0xb0 LL_HL_comm.o
                0x40001f64                LL_1khz_attitude_data
                0x40001fc0                LL_1khz_control_input
                0x40001ff8                wpToLL
 COMMON         0x40002014       0x58 gpsmath.o
                0x40002014                GPS_Data
                0x40002040                gps_data_temp
 COMMON         0x4000206c       0xd1 sdk.o
                0x4000206c                WO_CTRL_Input
                0x40002078                WO_Direct_Motor_Control
                0x4000207c                WO_Direct_Individual_Motor_Control
                0x40002088                WO_SDK
                0x4000208c                RO_RC_Data
                0x4000209c                last_bit
                0x400020a0                laser_distance
                0x400020a2                byte_read
                0x400020a4                RO_ALL_Data
                0x4000213c                emergencyMode
 *fill*         0x4000213d        0x3 00
 COMMON         0x40002140      0x100 lpc_aci_eeprom.o
                0x40002140                content
 COMMON         0x40002240     0x2b42 asctecCommIntfOnboard.o
                0x40002240                aciSendSingleId
                0x400022cc                aciParPacketContentBuffer
                0x4000277c                aciSendSingleBufferCnt
                0x40002808                aciListPar
                0x40002bbe                aciParPacketSelect
                0x40002d3e                aciSendSingleBuffer
                0x40002f6e                aciParPacketSelectLength
                0x40002f71                aciCmdPacketSelectLength
                0x40002f74                aciCmdPacketContentBuffer
                0x40003424                aciVarPacketContentBuffer
                0x40003ab4                aciCmdPacketSelect
                0x40003c34                aciTxRingBuffer
                0x40003cd4                aciVarPacketTypeList
                0x40003d94                aciListVar
                0x400042c6                aciParPacketContentBufferValid
                0x400042ca                aciSendSingleStatus
                0x40004358                aciVarPacketPtrList
                0x40004658                aciParPacketContentBufferLength
                0x4000465e                aciCmdPacketContentBufferInvalidCnt
                0x40004662                aciVarPacketContentBufferLength
                0x40004668                aciListCmd
                0x40004a1e                aciSendSingleVarType
                0x40004a64                aciRxDataCnt
                0x40004a68                aciStartTxCallback
                0x40004a6c                aciRxDataBuffer
                0x40004bec                aciParPacketContentBufferInvalidCnt
                0x40004bef                aciCmdPacketContentBufferValid
                0x40004bf4                aciReadDatafromFlashCallback
                0x40004bf8                aciCmdPacketContentBufferLength
                0x40004bfe                aciVarPacketSelectLength
                0x40004c02                aciVarPacketSelect
 COMMON         0x40004d82       0x53 buildInfoSetup.o
                0x40004d82                buildInfo
 *fill*         0x40004dd5        0x3 00
 COMMON         0x40004dd8       0xdc main.o
                0x40004dd8                GPS_Time
                0x40004de0                IMU_CalcData
                0x40004e3c                HL_Status
                0x40004e54                uart_cnt
                0x40004e58                IMU_CalcData_tmp
 COMMON         0x40004eb4       0x20 uart.o
                0x40004eb4                UART_rxptr
                0x40004eb8                send_buffer
                0x40004ec8                current_chksum
                0x40004eca                packets
                0x40004ecc                tx_buff
                0x40004ed0                UART1_rxptr
 COMMON         0x40004ed4       0x54 i2c.o
                0x40004ed4                I2CReadLength
                0x40004ed8                I2CSlaveBuffer
                0x40004ef8                I2CMode
                0x40004efc                I2CMasterBuffer
                0x40004f1c                I2CCmd
                0x40004f20                I2CWriteLength
                0x40004f24                I2CSTAT
 COMMON         0x40004f28       0x24 i2c1.o
                0x40004f28                I2C1WriteLength
                0x40004f2c                I2C1MasterBuffer
 COMMON         0x40004f4c       0x60 adc.o
                0x40004f4c                ADC0Value
                0x40004f6c                ADC1Value
                0x40004f8c                adcChannelValues
 COMMON         0x40004fac      0x10c ssp.o
                0x40004fac                CurrentRxIndex
                0x40004fb0                SPIWR_num_bytes
                0x40004fb4                CurrentTxIndex
                0x40004fb8                SPIWRData
                0x40005038                SPIRDData
 COMMON         0x400050b8       0x2c pelican_ptu.o
                0x400050b8                CAMERA_Commands
                0x400050c4                CAMERA_ptu
 COMMON         0x400050e4      0x174 jetiTelemetry.o
                0x400050e4                jetiDisplayText
                0x40005104                jetiValues
                0x4000524e                jetiName
 COMMON         0x40005258        0x4 LPC2k_ee.o
                0x40005258                iap_entry
 COMMON         0x4000525c      0x356 ./\libublox.a(ublox.o)
                0x4000525c                GPS_RawBuffer
                0x400053dc                urRecData
                0x400054dc                satInfo
                0x4000559c                urConfigCnt
                0x400055a0                urCfgIdList
                0x400055a4                gpsHardwareStatus
                0x400055b4                . = ALIGN (0x4)
 *fill*         0x400055b2        0x2 00
                0x400055b4                . = ALIGN (0x4)
                0x400055b4                __bss_end__ = .
                0x400055b4                PROVIDE (__bss_end, .)

.stack          0x40005600     0x1980
 *(.stack)
 .stack         0x40005600     0x1980 Common_WinARM/src/Startup.o
                0x40006f80                PROVIDE (_stack, .)
                0x40006f80                . = ALIGN (0x4)
                0x40006f80                _end = .
                0x40006f80                PROVIDE (end, .)

.stab
 *(.stab)

.stabstr
 *(.stabstr)

.stab.excl
 *(.stab.excl)

.stab.exclstr
 *(.stab.exclstr)

.stab.index
 *(.stab.index)

.stab.indexstr
 *(.stab.indexstr)

.comment        0x00000000      0x7e9
 *(.comment)
 .comment       0x00000000       0x1b LL_HL_comm.o
 .comment       0x0000001b       0x1b mymath.o
 .comment       0x00000036       0x1b gpsmath.o
 .comment       0x00000051       0x1b sdk.o
 .comment       0x0000006c       0x1b sdk_telemetry.o
 .comment       0x00000087       0x1b buzzer.o
 .comment       0x000000a2       0x1b lpc_aci_eeprom.o
 .comment       0x000000bd       0x1b asctecCommIntfOnboard.o
 .comment       0x000000d8       0x1b buildInfoSetup.o
 .comment       0x000000f3       0x1b main.o
 .comment       0x0000010e       0x1b hardware.o
 .comment       0x00000129       0x1b system.o
 .comment       0x00000144       0x1b uart.o
 .comment       0x0000015f       0x1b syscalls.o
 .comment       0x0000017a       0x1b i2c.o
 .comment       0x00000195       0x1b i2c1.o
 .comment       0x000001b0       0x1b Common_WinARM/src/irq.o
 .comment       0x000001cb       0x1b adc.o
 .comment       0x000001e6       0x1b ssp.o
 .comment       0x00000201       0x1b pelican_ptu.o
 .comment       0x0000021c       0x1b jetiTelemetry.o
 .comment       0x00000237       0x1b LPC2k_ee.o
 .comment       0x00000252       0x1b e:/asctec_arm_sdk/winarm/bin/../lib/gcc/arm-elf/4.1.1/../../../../arm-elf/lib/thumb/interwork\libc.a(memcpy.o)
 .comment       0x0000026d       0x1b e:/asctec_arm_sdk/winarm/bin/../lib/gcc/arm-elf/4.1.1/../../../../arm-elf/lib/thumb/interwork\libc.a(printf.o)
 .comment       0x00000288       0x1b e:/asctec_arm_sdk/winarm/bin/../lib/gcc/arm-elf/4.1.1/../../../../arm-elf/lib/thumb/interwork\libc.a(puts.o)
 .comment       0x000002a3       0x1b e:/asctec_arm_sdk/winarm/bin/../lib/gcc/arm-elf/4.1.1/../../../../arm-elf/lib/thumb/interwork\libc.a(sprintf.o)
 .comment       0x000002be       0x1b e:/asctec_arm_sdk/winarm/bin/../lib/gcc/arm-elf/4.1.1/../../../../arm-elf/lib/thumb/interwork\libc.a(strcpy.o)
 .comment       0x000002d9       0x1b e:/asctec_arm_sdk/winarm/bin/../lib/gcc/arm-elf/4.1.1/../../../../arm-elf/lib/thumb/interwork\libc.a(strlen.o)
 .comment       0x000002f4       0x1b e:/asctec_arm_sdk/winarm/bin/../lib/gcc/arm-elf/4.1.1/../../../../arm-elf/lib/thumb/interwork\libc.a(vfprintf.o)
 .comment       0x0000030f       0x1b e:/asctec_arm_sdk/winarm/bin/../lib/gcc/arm-elf/4.1.1/../../../../arm-elf/lib/thumb/interwork\libc.a(wcrtomb.o)
 .comment       0x0000032a       0x1b e:/asctec_arm_sdk/winarm/bin/../lib/gcc/arm-elf/4.1.1/../../../../arm-elf/lib/thumb/interwork\libc.a(wcsrtombs.o)
 .comment       0x00000345       0x1b e:/asctec_arm_sdk/winarm/bin/../lib/gcc/arm-elf/4.1.1/../../../../arm-elf/lib/thumb/interwork\libc.a(wctomb_r.o)
 .comment       0x00000360       0x1b e:/asctec_arm_sdk/winarm/bin/../lib/gcc/arm-elf/4.1.1/../../../../arm-elf/lib/thumb/interwork\libc.a(wsetup.o)
 .comment       0x0000037b       0x1b e:/asctec_arm_sdk/winarm/bin/../lib/gcc/arm-elf/4.1.1/../../../../arm-elf/lib/thumb/interwork\libc.a(dtoa.o)
 .comment       0x00000396       0x1b e:/asctec_arm_sdk/winarm/bin/../lib/gcc/arm-elf/4.1.1/../../../../arm-elf/lib/thumb/interwork\libc.a(fflush.o)
 .comment       0x000003b1       0x1b e:/asctec_arm_sdk/winarm/bin/../lib/gcc/arm-elf/4.1.1/../../../../arm-elf/lib/thumb/interwork\libc.a(findfp.o)
 .comment       0x000003cc       0x1b e:/asctec_arm_sdk/winarm/bin/../lib/gcc/arm-elf/4.1.1/../../../../arm-elf/lib/thumb/interwork\libc.a(freer.o)
 .comment       0x000003e7       0x1b e:/asctec_arm_sdk/winarm/bin/../lib/gcc/arm-elf/4.1.1/../../../../arm-elf/lib/thumb/interwork\libc.a(fvwrite.o)
 .comment       0x00000402       0x1b e:/asctec_arm_sdk/winarm/bin/../lib/gcc/arm-elf/4.1.1/../../../../arm-elf/lib/thumb/interwork\libc.a(fwalk.o)
 .comment       0x0000041d       0x1b e:/asctec_arm_sdk/winarm/bin/../lib/gcc/arm-elf/4.1.1/../../../../arm-elf/lib/thumb/interwork\libc.a(impure.o)
 .comment       0x00000438       0x1b e:/asctec_arm_sdk/winarm/bin/../lib/gcc/arm-elf/4.1.1/../../../../arm-elf/lib/thumb/interwork\libc.a(locale.o)
 .comment       0x00000453       0x1b e:/asctec_arm_sdk/winarm/bin/../lib/gcc/arm-elf/4.1.1/../../../../arm-elf/lib/thumb/interwork\libc.a(makebuf.o)
 .comment       0x0000046e       0x1b e:/asctec_arm_sdk/winarm/bin/../lib/gcc/arm-elf/4.1.1/../../../../arm-elf/lib/thumb/interwork\libc.a(mallocr.o)
 .comment       0x00000489       0x1b e:/asctec_arm_sdk/winarm/bin/../lib/gcc/arm-elf/4.1.1/../../../../arm-elf/lib/thumb/interwork\libc.a(memchr.o)
 .comment       0x000004a4       0x1b e:/asctec_arm_sdk/winarm/bin/../lib/gcc/arm-elf/4.1.1/../../../../arm-elf/lib/thumb/interwork\libc.a(memmove.o)
 .comment       0x000004bf       0x1b e:/asctec_arm_sdk/winarm/bin/../lib/gcc/arm-elf/4.1.1/../../../../arm-elf/lib/thumb/interwork\libc.a(memset.o)
 .comment       0x000004da       0x1b e:/asctec_arm_sdk/winarm/bin/../lib/gcc/arm-elf/4.1.1/../../../../arm-elf/lib/thumb/interwork\libc.a(mlock.o)
 .comment       0x000004f5       0x1b e:/asctec_arm_sdk/winarm/bin/../lib/gcc/arm-elf/4.1.1/../../../../arm-elf/lib/thumb/interwork\libc.a(mprec.o)
 .comment       0x00000510       0x1b e:/asctec_arm_sdk/winarm/bin/../lib/gcc/arm-elf/4.1.1/../../../../arm-elf/lib/thumb/interwork\libc.a(reallocr.o)
 .comment       0x0000052b       0x1b e:/asctec_arm_sdk/winarm/bin/../lib/gcc/arm-elf/4.1.1/../../../../arm-elf/lib/thumb/interwork\libc.a(s_isinf.o)
 .comment       0x00000546       0x1b e:/asctec_arm_sdk/winarm/bin/../lib/gcc/arm-elf/4.1.1/../../../../arm-elf/lib/thumb/interwork\libc.a(s_isnan.o)
 .comment       0x00000561       0x1b e:/asctec_arm_sdk/winarm/bin/../lib/gcc/arm-elf/4.1.1/../../../../arm-elf/lib/thumb/interwork\libc.a(stdio.o)
 .comment       0x0000057c       0x1b e:/asctec_arm_sdk/winarm/bin/../lib/gcc/arm-elf/4.1.1/../../../../arm-elf/lib/thumb/interwork\libc.a(strcmp.o)
 .comment       0x00000597       0x1b e:/asctec_arm_sdk/winarm/bin/../lib/gcc/arm-elf/4.1.1/../../../../arm-elf/lib/thumb/interwork\libc.a(callocr.o)
 .comment       0x000005b2       0x1b e:/asctec_arm_sdk/winarm/bin/../lib/gcc/arm-elf/4.1.1/../../../../arm-elf/lib/thumb/interwork\libc.a(fclose.o)
 .comment       0x000005cd       0x1b ./\libdeclination.a(declination.o)
 .comment       0x000005e8       0x1b ./\libublox.a(ublox.o)
 .comment       0x00000603       0x1b e:/asctec_arm_sdk/winarm/bin/../lib/gcc/arm-elf/4.1.1/../../../../arm-elf/lib/thumb/interwork\libm.a(s_cos.o)
 .comment       0x0000061e       0x1b e:/asctec_arm_sdk/winarm/bin/../lib/gcc/arm-elf/4.1.1/../../../../arm-elf/lib/thumb/interwork\libm.a(s_sin.o)
 .comment       0x00000639       0x1b e:/asctec_arm_sdk/winarm/bin/../lib/gcc/arm-elf/4.1.1/../../../../arm-elf/lib/thumb/interwork\libm.a(w_atan2.o)
 .comment       0x00000654       0x1b e:/asctec_arm_sdk/winarm/bin/../lib/gcc/arm-elf/4.1.1/../../../../arm-elf/lib/thumb/interwork\libm.a(w_sqrt.o)
 .comment       0x0000066f       0x1b e:/asctec_arm_sdk/winarm/bin/../lib/gcc/arm-elf/4.1.1/../../../../arm-elf/lib/thumb/interwork\libm.a(e_atan2.o)
 .comment       0x0000068a       0x1b e:/asctec_arm_sdk/winarm/bin/../lib/gcc/arm-elf/4.1.1/../../../../arm-elf/lib/thumb/interwork\libm.a(e_rem_pio2.o)
 .comment       0x000006a5       0x1b e:/asctec_arm_sdk/winarm/bin/../lib/gcc/arm-elf/4.1.1/../../../../arm-elf/lib/thumb/interwork\libm.a(e_sqrt.o)
 .comment       0x000006c0       0x1b e:/asctec_arm_sdk/winarm/bin/../lib/gcc/arm-elf/4.1.1/../../../../arm-elf/lib/thumb/interwork\libm.a(k_cos.o)
 .comment       0x000006db       0x1b e:/asctec_arm_sdk/winarm/bin/../lib/gcc/arm-elf/4.1.1/../../../../arm-elf/lib/thumb/interwork\libm.a(k_rem_pio2.o)
 .comment       0x000006f6       0x1b e:/asctec_arm_sdk/winarm/bin/../lib/gcc/arm-elf/4.1.1/../../../../arm-elf/lib/thumb/interwork\libm.a(k_sin.o)
 .comment       0x00000711       0x1b e:/asctec_arm_sdk/winarm/bin/../lib/gcc/arm-elf/4.1.1/../../../../arm-elf/lib/thumb/interwork\libm.a(s_atan.o)
 .comment       0x0000072c       0x1b e:/asctec_arm_sdk/winarm/bin/../lib/gcc/arm-elf/4.1.1/../../../../arm-elf/lib/thumb/interwork\libm.a(s_fabs.o)
 .comment       0x00000747       0x1b e:/asctec_arm_sdk/winarm/bin/../lib/gcc/arm-elf/4.1.1/../../../../arm-elf/lib/thumb/interwork\libm.a(s_floor.o)
 .comment       0x00000762       0x1b e:/asctec_arm_sdk/winarm/bin/../lib/gcc/arm-elf/4.1.1/../../../../arm-elf/lib/thumb/interwork\libm.a(s_lib_ver.o)
 .comment       0x0000077d       0x1b e:/asctec_arm_sdk/winarm/bin/../lib/gcc/arm-elf/4.1.1/../../../../arm-elf/lib/thumb/interwork\libm.a(s_matherr.o)
 .comment       0x00000798       0x1b e:/asctec_arm_sdk/winarm/bin/../lib/gcc/arm-elf/4.1.1/../../../../arm-elf/lib/thumb/interwork\libm.a(s_scalbn.o)
 .comment       0x000007b3       0x1b e:/asctec_arm_sdk/winarm/bin/../lib/gcc/arm-elf/4.1.1/../../../../arm-elf/lib/thumb/interwork\libm.a(s_copysign.o)
 .comment       0x000007ce       0x1b e:/asctec_arm_sdk/winarm/bin/../lib/gcc/arm-elf/4.1.1/../../../../arm-elf/lib/thumb/interwork\libg.a(errno.o)

.debug
 *(.debug)

.line
 *(.line)

.debug_srcinfo
 *(.debug_srcinfo)

.debug_sfnames
 *(.debug_sfnames)

.debug_aranges  0x00000000      0x4d0
 *(.debug_aranges)
 .debug_aranges
                0x00000000       0x28 Common_WinARM/src/Startup.o
 .debug_aranges
                0x00000028       0x28 Common_WinARM/src/swi_handler.o
 .debug_aranges
                0x00000050       0x20 LL_HL_comm.o
 .debug_aranges
                0x00000070       0x20 mymath.o
 .debug_aranges
                0x00000090       0x20 gpsmath.o
 .debug_aranges
                0x000000b0       0x20 sdk.o
 .debug_aranges
                0x000000d0       0x20 sdk_telemetry.o
 .debug_aranges
                0x000000f0       0x20 buzzer.o
 .debug_aranges
                0x00000110       0x20 lpc_aci_eeprom.o
 .debug_aranges
                0x00000130       0x20 asctecCommIntfOnboard.o
 .debug_aranges
                0x00000150       0x20 buildInfoSetup.o
 .debug_aranges
                0x00000170       0x20 main.o
 .debug_aranges
                0x00000190       0x20 hardware.o
 .debug_aranges
                0x000001b0       0x20 system.o
 .debug_aranges
                0x000001d0       0x20 uart.o
 .debug_aranges
                0x000001f0       0x20 syscalls.o
 .debug_aranges
                0x00000210       0x20 i2c.o
 .debug_aranges
                0x00000230       0x20 i2c1.o
 .debug_aranges
                0x00000250       0x20 Common_WinARM/src/irq.o
 .debug_aranges
                0x00000270       0x20 adc.o
 .debug_aranges
                0x00000290       0x20 ssp.o
 .debug_aranges
                0x000002b0       0x20 pelican_ptu.o
 .debug_aranges
                0x000002d0       0x20 jetiTelemetry.o
 .debug_aranges
                0x000002f0       0x20 LPC2k_ee.o
 .debug_aranges
                0x00000310       0x20 e:/asctec_arm_sdk/winarm/bin/../lib/gcc/arm-elf/4.1.1/thumb/interwork\libgcc.a(_udivsi3.o)
 .debug_aranges
                0x00000330       0x20 e:/asctec_arm_sdk/winarm/bin/../lib/gcc/arm-elf/4.1.1/thumb/interwork\libgcc.a(_divsi3.o)
 .debug_aranges
                0x00000350       0x20 e:/asctec_arm_sdk/winarm/bin/../lib/gcc/arm-elf/4.1.1/thumb/interwork\libgcc.a(_umodsi3.o)
 .debug_aranges
                0x00000370       0x20 e:/asctec_arm_sdk/winarm/bin/../lib/gcc/arm-elf/4.1.1/thumb/interwork\libgcc.a(_modsi3.o)
 .debug_aranges
                0x00000390       0x20 e:/asctec_arm_sdk/winarm/bin/../lib/gcc/arm-elf/4.1.1/thumb/interwork\libgcc.a(_dvmd_tls.o)
 .debug_aranges
                0x000003b0       0x20 e:/asctec_arm_sdk/winarm/bin/../lib/gcc/arm-elf/4.1.1/thumb/interwork\libgcc.a(_addsubdf3.o)
 .debug_aranges
                0x000003d0       0x20 e:/asctec_arm_sdk/winarm/bin/../lib/gcc/arm-elf/4.1.1/thumb/interwork\libgcc.a(_muldivdf3.o)
 .debug_aranges
                0x000003f0       0x20 e:/asctec_arm_sdk/winarm/bin/../lib/gcc/arm-elf/4.1.1/thumb/interwork\libgcc.a(_cmpdf2.o)
 .debug_aranges
                0x00000410       0x20 e:/asctec_arm_sdk/winarm/bin/../lib/gcc/arm-elf/4.1.1/thumb/interwork\libgcc.a(_fixdfsi.o)
 .debug_aranges
                0x00000430       0x20 e:/asctec_arm_sdk/winarm/bin/../lib/gcc/arm-elf/4.1.1/thumb/interwork\libgcc.a(_truncdfsf2.o)
 .debug_aranges
                0x00000450       0x20 e:/asctec_arm_sdk/winarm/bin/../lib/gcc/arm-elf/4.1.1/thumb/interwork\libgcc.a(_addsubsf3.o)
 .debug_aranges
                0x00000470       0x20 e:/asctec_arm_sdk/winarm/bin/../lib/gcc/arm-elf/4.1.1/thumb/interwork\libgcc.a(_muldivsf3.o)
 .debug_aranges
                0x00000490       0x20 e:/asctec_arm_sdk/winarm/bin/../lib/gcc/arm-elf/4.1.1/thumb/interwork\libgcc.a(_cmpsf2.o)
 .debug_aranges
                0x000004b0       0x20 e:/asctec_arm_sdk/winarm/bin/../lib/gcc/arm-elf/4.1.1/thumb/interwork\libgcc.a(_fixsfsi.o)

.debug_pubnames
                0x00000000     0x1e75
 *(.debug_pubnames)
 .debug_pubnames
                0x00000000      0x164 LL_HL_comm.o
 .debug_pubnames
                0x00000164       0x2d mymath.o
 .debug_pubnames
                0x00000191       0x54 gpsmath.o
 .debug_pubnames
                0x000001e5      0x270 sdk.o
 .debug_pubnames
                0x00000455       0xbe sdk_telemetry.o
 .debug_pubnames
                0x00000513       0xb8 buzzer.o
 .debug_pubnames
                0x000005cb       0x93 lpc_aci_eeprom.o
 .debug_pubnames
                0x0000065e      0x91c asctecCommIntfOnboard.o
 .debug_pubnames
                0x00000f7a       0x5d buildInfoSetup.o
 .debug_pubnames
                0x00000fd7      0x175 main.o
 .debug_pubnames
                0x0000114c       0x41 hardware.o
 .debug_pubnames
                0x0000118d      0x10c system.o
 .debug_pubnames
                0x00001299      0x319 uart.o
 .debug_pubnames
                0x000015b2       0x69 syscalls.o
 .debug_pubnames
                0x0000161b      0x1c1 i2c.o
 .debug_pubnames
                0x000017dc      0x10c i2c1.o
 .debug_pubnames
                0x000018e8       0x41 Common_WinARM/src/irq.o
 .debug_pubnames
                0x00001929       0xbc adc.o
 .debug_pubnames
                0x000019e5      0x113 ssp.o
 .debug_pubnames
                0x00001af8      0x129 pelican_ptu.o
 .debug_pubnames
                0x00001c21      0x1d8 jetiTelemetry.o
 .debug_pubnames
                0x00001df9       0x7c LPC2k_ee.o

.debug_info     0x00000000     0xa90c
 *(.debug_info .gnu.linkonce.wi.*)
 .debug_info    0x00000000       0x59 Common_WinARM/src/Startup.o
 .debug_info    0x00000059       0x5d Common_WinARM/src/swi_handler.o
 .debug_info    0x000000b6     0x101c LL_HL_comm.o
 .debug_info    0x000010d2       0xa1 mymath.o
 .debug_info    0x00001173      0x1a6 gpsmath.o
 .debug_info    0x00001319      0x8d5 sdk.o
 .debug_info    0x00001bee      0x788 sdk_telemetry.o
 .debug_info    0x00002376      0x468 buzzer.o
 .debug_info    0x000027de      0x2ec lpc_aci_eeprom.o
 .debug_info    0x00002aca     0x12f3 asctecCommIntfOnboard.o
 .debug_info    0x00003dbd      0x1cb buildInfoSetup.o
 .debug_info    0x00003f88     0x19b8 main.o
 .debug_info    0x00005940      0x126 hardware.o
 .debug_info    0x00005a66      0x2e3 system.o
 .debug_info    0x00005d49      0x9b5 uart.o
 .debug_info    0x000066fe     0x100b syscalls.o
 .debug_info    0x00007709      0x5c1 i2c.o
 .debug_info    0x00007cca      0x875 i2c1.o
 .debug_info    0x0000853f      0x1b6 Common_WinARM/src/irq.o
 .debug_info    0x000086f5      0x2e5 adc.o
 .debug_info    0x000089da      0x2d5 ssp.o
 .debug_info    0x00008caf      0xaba pelican_ptu.o
 .debug_info    0x00009769      0x790 jetiTelemetry.o
 .debug_info    0x00009ef9      0x3c4 LPC2k_ee.o
 .debug_info    0x0000a2bd       0x74 e:/asctec_arm_sdk/winarm/bin/../lib/gcc/arm-elf/4.1.1/thumb/interwork\libgcc.a(_udivsi3.o)
 .debug_info    0x0000a331       0x74 e:/asctec_arm_sdk/winarm/bin/../lib/gcc/arm-elf/4.1.1/thumb/interwork\libgcc.a(_divsi3.o)
 .debug_info    0x0000a3a5       0x74 e:/asctec_arm_sdk/winarm/bin/../lib/gcc/arm-elf/4.1.1/thumb/interwork\libgcc.a(_umodsi3.o)
 .debug_info    0x0000a419       0x74 e:/asctec_arm_sdk/winarm/bin/../lib/gcc/arm-elf/4.1.1/thumb/interwork\libgcc.a(_modsi3.o)
 .debug_info    0x0000a48d       0x74 e:/asctec_arm_sdk/winarm/bin/../lib/gcc/arm-elf/4.1.1/thumb/interwork\libgcc.a(_dvmd_tls.o)
 .debug_info    0x0000a501       0x73 e:/asctec_arm_sdk/winarm/bin/../lib/gcc/arm-elf/4.1.1/thumb/interwork\libgcc.a(_addsubdf3.o)
 .debug_info    0x0000a574       0x73 e:/asctec_arm_sdk/winarm/bin/../lib/gcc/arm-elf/4.1.1/thumb/interwork\libgcc.a(_muldivdf3.o)
 .debug_info    0x0000a5e7       0x73 e:/asctec_arm_sdk/winarm/bin/../lib/gcc/arm-elf/4.1.1/thumb/interwork\libgcc.a(_cmpdf2.o)
 .debug_info    0x0000a65a       0x73 e:/asctec_arm_sdk/winarm/bin/../lib/gcc/arm-elf/4.1.1/thumb/interwork\libgcc.a(_fixdfsi.o)
 .debug_info    0x0000a6cd       0x73 e:/asctec_arm_sdk/winarm/bin/../lib/gcc/arm-elf/4.1.1/thumb/interwork\libgcc.a(_truncdfsf2.o)
 .debug_info    0x0000a740       0x73 e:/asctec_arm_sdk/winarm/bin/../lib/gcc/arm-elf/4.1.1/thumb/interwork\libgcc.a(_addsubsf3.o)
 .debug_info    0x0000a7b3       0x73 e:/asctec_arm_sdk/winarm/bin/../lib/gcc/arm-elf/4.1.1/thumb/interwork\libgcc.a(_muldivsf3.o)
 .debug_info    0x0000a826       0x73 e:/asctec_arm_sdk/winarm/bin/../lib/gcc/arm-elf/4.1.1/thumb/interwork\libgcc.a(_cmpsf2.o)
 .debug_info    0x0000a899       0x73 e:/asctec_arm_sdk/winarm/bin/../lib/gcc/arm-elf/4.1.1/thumb/interwork\libgcc.a(_fixsfsi.o)

.debug_abbrev   0x00000000     0x1a0f
 *(.debug_abbrev)
 .debug_abbrev  0x00000000       0x10 Common_WinARM/src/Startup.o
 .debug_abbrev  0x00000010       0x10 Common_WinARM/src/swi_handler.o
 .debug_abbrev  0x00000020      0x1d2 LL_HL_comm.o
 .debug_abbrev  0x000001f2       0x9b mymath.o
 .debug_abbrev  0x0000028d       0x97 gpsmath.o
 .debug_abbrev  0x00000324      0x1a8 sdk.o
 .debug_abbrev  0x000004cc      0x118 sdk_telemetry.o
 .debug_abbrev  0x000005e4       0xfa buzzer.o
 .debug_abbrev  0x000006de      0x146 lpc_aci_eeprom.o
 .debug_abbrev  0x00000824      0x2a5 asctecCommIntfOnboard.o
 .debug_abbrev  0x00000ac9       0xbb buildInfoSetup.o
 .debug_abbrev  0x00000b84      0x122 main.o
 .debug_abbrev  0x00000ca6       0x5d hardware.o
 .debug_abbrev  0x00000d03       0xd7 system.o
 .debug_abbrev  0x00000dda      0x10b uart.o
 .debug_abbrev  0x00000ee5      0x1a7 syscalls.o
 .debug_abbrev  0x0000108c      0x183 i2c.o
 .debug_abbrev  0x0000120f      0x124 i2c1.o
 .debug_abbrev  0x00001333       0xc5 Common_WinARM/src/irq.o
 .debug_abbrev  0x000013f8       0xfa adc.o
 .debug_abbrev  0x000014f2       0xc0 ssp.o
 .debug_abbrev  0x000015b2       0xf4 pelican_ptu.o
 .debug_abbrev  0x000016a6      0x13d jetiTelemetry.o
 .debug_abbrev  0x000017e3      0x114 LPC2k_ee.o
 .debug_abbrev  0x000018f7       0x14 e:/asctec_arm_sdk/winarm/bin/../lib/gcc/arm-elf/4.1.1/thumb/interwork\libgcc.a(_udivsi3.o)
 .debug_abbrev  0x0000190b       0x14 e:/asctec_arm_sdk/winarm/bin/../lib/gcc/arm-elf/4.1.1/thumb/interwork\libgcc.a(_divsi3.o)
 .debug_abbrev  0x0000191f       0x14 e:/asctec_arm_sdk/winarm/bin/../lib/gcc/arm-elf/4.1.1/thumb/interwork\libgcc.a(_umodsi3.o)
 .debug_abbrev  0x00001933       0x14 e:/asctec_arm_sdk/winarm/bin/../lib/gcc/arm-elf/4.1.1/thumb/interwork\libgcc.a(_modsi3.o)
 .debug_abbrev  0x00001947       0x14 e:/asctec_arm_sdk/winarm/bin/../lib/gcc/arm-elf/4.1.1/thumb/interwork\libgcc.a(_dvmd_tls.o)
 .debug_abbrev  0x0000195b       0x14 e:/asctec_arm_sdk/winarm/bin/../lib/gcc/arm-elf/4.1.1/thumb/interwork\libgcc.a(_addsubdf3.o)
 .debug_abbrev  0x0000196f       0x14 e:/asctec_arm_sdk/winarm/bin/../lib/gcc/arm-elf/4.1.1/thumb/interwork\libgcc.a(_muldivdf3.o)
 .debug_abbrev  0x00001983       0x14 e:/asctec_arm_sdk/winarm/bin/../lib/gcc/arm-elf/4.1.1/thumb/interwork\libgcc.a(_cmpdf2.o)
 .debug_abbrev  0x00001997       0x14 e:/asctec_arm_sdk/winarm/bin/../lib/gcc/arm-elf/4.1.1/thumb/interwork\libgcc.a(_fixdfsi.o)
 .debug_abbrev  0x000019ab       0x14 e:/asctec_arm_sdk/winarm/bin/../lib/gcc/arm-elf/4.1.1/thumb/interwork\libgcc.a(_truncdfsf2.o)
 .debug_abbrev  0x000019bf       0x14 e:/asctec_arm_sdk/winarm/bin/../lib/gcc/arm-elf/4.1.1/thumb/interwork\libgcc.a(_addsubsf3.o)
 .debug_abbrev  0x000019d3       0x14 e:/asctec_arm_sdk/winarm/bin/../lib/gcc/arm-elf/4.1.1/thumb/interwork\libgcc.a(_muldivsf3.o)
 .debug_abbrev  0x000019e7       0x14 e:/asctec_arm_sdk/winarm/bin/../lib/gcc/arm-elf/4.1.1/thumb/interwork\libgcc.a(_cmpsf2.o)
 .debug_abbrev  0x000019fb       0x14 e:/asctec_arm_sdk/winarm/bin/../lib/gcc/arm-elf/4.1.1/thumb/interwork\libgcc.a(_fixsfsi.o)

.debug_line     0x00000000     0x2a59
 *(.debug_line)
 .debug_line    0x00000000       0xcf Common_WinARM/src/Startup.o
 .debug_line    0x000000cf       0xa6 Common_WinARM/src/swi_handler.o
 .debug_line    0x00000175      0x45b LL_HL_comm.o
 .debug_line    0x000005d0       0x41 mymath.o
 .debug_line    0x00000611       0x51 gpsmath.o
 .debug_line    0x00000662      0x304 sdk.o
 .debug_line    0x00000966      0x14d sdk_telemetry.o
 .debug_line    0x00000ab3      0x139 buzzer.o
 .debug_line    0x00000bec      0x113 lpc_aci_eeprom.o
 .debug_line    0x00000cff      0x680 asctecCommIntfOnboard.o
 .debug_line    0x0000137f       0x94 buildInfoSetup.o
 .debug_line    0x00001413      0x170 main.o
 .debug_line    0x00001583       0x4b hardware.o
 .debug_line    0x000015ce       0xae system.o
 .debug_line    0x0000167c      0x120 uart.o
 .debug_line    0x0000179c      0x19d syscalls.o
 .debug_line    0x00001939      0x13a i2c.o
 .debug_line    0x00001a73      0x1a4 i2c1.o
 .debug_line    0x00001c17       0x84 Common_WinARM/src/irq.o
 .debug_line    0x00001c9b       0x78 adc.o
 .debug_line    0x00001d13       0x7d ssp.o
 .debug_line    0x00001d90       0xe3 pelican_ptu.o
 .debug_line    0x00001e73      0x121 jetiTelemetry.o
 .debug_line    0x00001f94       0xb5 LPC2k_ee.o
 .debug_line    0x00002049       0x76 e:/asctec_arm_sdk/winarm/bin/../lib/gcc/arm-elf/4.1.1/thumb/interwork\libgcc.a(_udivsi3.o)
 .debug_line    0x000020bf       0x82 e:/asctec_arm_sdk/winarm/bin/../lib/gcc/arm-elf/4.1.1/thumb/interwork\libgcc.a(_divsi3.o)
 .debug_line    0x00002141       0x6e e:/asctec_arm_sdk/winarm/bin/../lib/gcc/arm-elf/4.1.1/thumb/interwork\libgcc.a(_umodsi3.o)
 .debug_line    0x000021af       0x77 e:/asctec_arm_sdk/winarm/bin/../lib/gcc/arm-elf/4.1.1/thumb/interwork\libgcc.a(_modsi3.o)
 .debug_line    0x00002226       0x60 e:/asctec_arm_sdk/winarm/bin/../lib/gcc/arm-elf/4.1.1/thumb/interwork\libgcc.a(_dvmd_tls.o)
 .debug_line    0x00002286      0x168 e:/asctec_arm_sdk/winarm/bin/../lib/gcc/arm-elf/4.1.1/thumb/interwork\libgcc.a(_addsubdf3.o)
 .debug_line    0x000023ee      0x17d e:/asctec_arm_sdk/winarm/bin/../lib/gcc/arm-elf/4.1.1/thumb/interwork\libgcc.a(_muldivdf3.o)
 .debug_line    0x0000256b       0xaa e:/asctec_arm_sdk/winarm/bin/../lib/gcc/arm-elf/4.1.1/thumb/interwork\libgcc.a(_cmpdf2.o)
 .debug_line    0x00002615       0x75 e:/asctec_arm_sdk/winarm/bin/../lib/gcc/arm-elf/4.1.1/thumb/interwork\libgcc.a(_fixdfsi.o)
 .debug_line    0x0000268a       0x86 e:/asctec_arm_sdk/winarm/bin/../lib/gcc/arm-elf/4.1.1/thumb/interwork\libgcc.a(_truncdfsf2.o)
 .debug_line    0x00002710      0x116 e:/asctec_arm_sdk/winarm/bin/../lib/gcc/arm-elf/4.1.1/thumb/interwork\libgcc.a(_addsubsf3.o)
 .debug_line    0x00002826      0x120 e:/asctec_arm_sdk/winarm/bin/../lib/gcc/arm-elf/4.1.1/thumb/interwork\libgcc.a(_muldivsf3.o)
 .debug_line    0x00002946       0x9e e:/asctec_arm_sdk/winarm/bin/../lib/gcc/arm-elf/4.1.1/thumb/interwork\libgcc.a(_cmpsf2.o)
 .debug_line    0x000029e4       0x75 e:/asctec_arm_sdk/winarm/bin/../lib/gcc/arm-elf/4.1.1/thumb/interwork\libgcc.a(_fixsfsi.o)

.debug_frame    0x00000000     0x14c8
 *(.debug_frame)
 .debug_frame   0x00000000       0x9c LL_HL_comm.o
 .debug_frame   0x0000009c       0x3c mymath.o
 .debug_frame   0x000000d8       0x38 gpsmath.o
 .debug_frame   0x00000110       0xec sdk.o
 .debug_frame   0x000001fc       0x7c sdk_telemetry.o
 .debug_frame   0x00000278       0x40 buzzer.o
 .debug_frame   0x000002b8       0x98 lpc_aci_eeprom.o
 .debug_frame   0x00000350      0x310 asctecCommIntfOnboard.o
 .debug_frame   0x00000660       0x38 buildInfoSetup.o
 .debug_frame   0x00000698       0x90 main.o
 .debug_frame   0x00000728       0x30 hardware.o
 .debug_frame   0x00000758      0x190 system.o
 .debug_frame   0x000008e8      0x250 uart.o
 .debug_frame   0x00000b38       0xf0 syscalls.o
 .debug_frame   0x00000c28      0x1f0 i2c.o
 .debug_frame   0x00000e18       0xd0 i2c1.o
 .debug_frame   0x00000ee8       0x90 Common_WinARM/src/irq.o
 .debug_frame   0x00000f78       0xb0 adc.o
 .debug_frame   0x00001028       0x70 ssp.o
 .debug_frame   0x00001098       0xb0 pelican_ptu.o
 .debug_frame   0x00001148      0x1f0 jetiTelemetry.o
 .debug_frame   0x00001338       0xf0 LPC2k_ee.o
 .debug_frame   0x00001428       0x28 e:/asctec_arm_sdk/winarm/bin/../lib/gcc/arm-elf/4.1.1/thumb/interwork\libgcc.a(_udivsi3.o)
 .debug_frame   0x00001450       0x28 e:/asctec_arm_sdk/winarm/bin/../lib/gcc/arm-elf/4.1.1/thumb/interwork\libgcc.a(_divsi3.o)
 .debug_frame   0x00001478       0x28 e:/asctec_arm_sdk/winarm/bin/../lib/gcc/arm-elf/4.1.1/thumb/interwork\libgcc.a(_umodsi3.o)
 .debug_frame   0x000014a0       0x28 e:/asctec_arm_sdk/winarm/bin/../lib/gcc/arm-elf/4.1.1/thumb/interwork\libgcc.a(_modsi3.o)

.debug_str      0x00000000     0x1b8d
 *(.debug_str)
 .debug_str     0x00000000      0xa28 LL_HL_comm.o
                                0xb12 (size before relaxing)
 .debug_str     0x00000a28       0x1c mymath.o
                                 0x4e (size before relaxing)
 .debug_str     0x00000a44       0x33 gpsmath.o
                                0x146 (size before relaxing)
 .debug_str     0x00000a77      0x197 sdk.o
                                0x6ac (size before relaxing)
 .debug_str     0x00000c0e       0xbe sdk_telemetry.o
                                0x5d4 (size before relaxing)
 .debug_str     0x00000ccc      0x104 buzzer.o
                                0x3ca (size before relaxing)
 .debug_str     0x00000dd0      0x135 lpc_aci_eeprom.o
                                0x1cd (size before relaxing)
 .debug_str     0x00000f05      0xa04 asctecCommIntfOnboard.o
                                0xb25 (size before relaxing)
 .debug_str     0x00001909       0x32 buildInfoSetup.o
                                0x14b (size before relaxing)
 .debug_str     0x0000193b       0x52 main.o
 .debug_str     0x0000198d       0x22 uart.o
 .debug_str     0x000019af       0x25 syscalls.o
 .debug_str     0x000019d4       0x5e i2c.o
 .debug_str     0x00001a32       0x35 i2c1.o
 .debug_str     0x00001a67       0x1e Common_WinARM/src/irq.o
 .debug_str     0x00001a85       0x3c adc.o
 .debug_str     0x00001ac1       0x12 ssp.o
 .debug_str     0x00001ad3       0x48 pelican_ptu.o
 .debug_str     0x00001b1b       0x18 jetiTelemetry.o
 .debug_str     0x00001b33       0x5a LPC2k_ee.o

.debug_loc      0x00000000     0x2c17
 *(.debug_loc)
 .debug_loc     0x00000000      0x116 LL_HL_comm.o
 .debug_loc     0x00000116       0x50 mymath.o
 .debug_loc     0x00000166       0x87 gpsmath.o
 .debug_loc     0x000001ed      0x1f3 sdk.o
 .debug_loc     0x000003e0      0x179 sdk_telemetry.o
 .debug_loc     0x00000559      0x339 buzzer.o
 .debug_loc     0x00000892      0x227 lpc_aci_eeprom.o
 .debug_loc     0x00000ab9     0x1011 asctecCommIntfOnboard.o
 .debug_loc     0x00001aca       0x91 buildInfoSetup.o
 .debug_loc     0x00001b5b       0xa8 main.o
 .debug_loc     0x00001c03       0x2a hardware.o
 .debug_loc     0x00001c2d      0x1f8 system.o
 .debug_loc     0x00001e25      0x2f4 uart.o
 .debug_loc     0x00002119      0x126 syscalls.o
 .debug_loc     0x0000223f      0x276 i2c.o
 .debug_loc     0x000024b5       0xfc i2c1.o
 .debug_loc     0x000025b1       0xa8 Common_WinARM/src/irq.o
 .debug_loc     0x00002659       0xd2 adc.o
 .debug_loc     0x0000272b       0x7e ssp.o
 .debug_loc     0x000027a9       0xd2 pelican_ptu.o
 .debug_loc     0x0000287b      0x276 jetiTelemetry.o
 .debug_loc     0x00002af1      0x126 LPC2k_ee.o

.debug_macinfo
 *(.debug_macinfo)

.debug_weaknames
 *(.debug_weaknames)

.debug_funcnames
 *(.debug_funcnames)

.debug_typenames
 *(.debug_typenames)

.debug_varnames
 *(.debug_varnames)
OUTPUT(main.elf elf32-littlearm)

.debug_ranges   0x00000000      0x358
 .debug_ranges  0x00000000       0xb0 LL_HL_comm.o
 .debug_ranges  0x000000b0      0x278 asctecCommIntfOnboard.o
 .debug_ranges  0x00000328       0x30 buildInfoSetup.o

Cross Reference Table

Symbol                                            File
ACISDK                                            main.o
ADC0IntDone                                       adc.o
ADC0Read                                          adc.o
ADC0Value                                         adc.o
ADC0getSamplingResults                            adc.o
                                                  main.o
ADC0triggerSampling                               adc.o
                                                  main.o
ADC1IntDone                                       adc.o
ADC1Read                                          adc.o
ADC1Value                                         adc.o
ADCInit                                           adc.o
                                                  system.o
ALARM_battery_warning_voltage_high                buzzer.o
ALARM_battery_warning_voltage_low                 buzzer.o
CAMERA_Commands                                   pelican_ptu.o
CAMERA_ptu                                        pelican_ptu.o
CurrentRxIndex                                    ssp.o
CurrentTxIndex                                    ssp.o
DataOutputsPerSecond                              main.o
                                                  uart.o
FiqDisable                                        Common_WinARM/src/swi_handler.o
FiqEnable                                         Common_WinARM/src/swi_handler.o
FiqRestore                                        Common_WinARM/src/swi_handler.o
GPS_Data                                          ./\libublox.a(ublox.o)
                                                  i2c1.o
                                                  main.o
                                                  buzzer.o
                                                  sdk_telemetry.o
                                                  sdk.o
                                                  gpsmath.o
                                                  LL_HL_comm.o
GPS_RawBuffer                                     ./\libublox.a(ublox.o)
GPS_Time                                          ./\libublox.a(ublox.o)
                                                  main.o
GPS_raw_data_size                                 ./\libublox.a(ublox.o)
GPS_timeout                                       main.o
                                                  ./\libublox.a(ublox.o)
                                                  pelican_ptu.o
                                                  ssp.o
                                                  i2c1.o
                                                  uart.o
                                                  system.o
                                                  hardware.o
                                                  buildInfoSetup.o
                                                  buzzer.o
                                                  sdk_telemetry.o
                                                  sdk.o
                                                  LL_HL_comm.o
HL2LL_write_cycle                                 LL_HL_comm.o
                                                  main.o
HL_Status                                         i2c1.o
                                                  main.o
                                                  sdk_telemetry.o
                                                  LL_HL_comm.o
I2C0MasterHandler                                 i2c.o
I2C0RX_Byte                                       i2c.o
I2C0ReadByte                                      i2c.o
                                                  sdk.o
I2C0SendStart                                     i2c.o
I2C0SendStop                                      i2c.o
I2C0TX_Byte                                       i2c.o
I2C0WaitForSI                                     i2c.o
I2C0WriteByte                                     i2c.o
                                                  sdk.o
I2C0_send_motordata                               i2c.o
I2C1Count                                         i2c1.o
I2C1Engine                                        i2c1.o
I2C1Init                                          i2c1.o
                                                  main.o
I2C1MasterBuffer                                  i2c1.o
I2C1MasterHandler                                 i2c1.o
I2C1MasterState                                   i2c1.o
I2C1State                                         i2c1.o
I2C1WriteLength                                   i2c1.o
I2C1_setRGBLed                                    i2c1.o
                                                  main.o
                                                  buzzer.o
I2CCmd                                            i2c.o
I2CCount                                          i2c.o
I2CEngine                                         i2c.o
I2CInit                                           i2c.o
                                                  main.o
I2CMasterBuffer                                   i2c.o
I2CMasterState                                    i2c.o
I2CMode                                           i2c.o
I2CReadLength                                     i2c.o
I2CSTAT                                           i2c.o
I2CSlaveBuffer                                    i2c.o
I2CSlaveState                                     i2c.o
I2CStart                                          i2c.o
I2CStop                                           i2c.o
I2CWriteLength                                    i2c.o
IMU_CalcData                                      pelican_ptu.o
                                                  main.o
                                                  LL_HL_comm.o
IMU_CalcData_tmp                                  main.o
IntDisable                                        Common_WinARM/src/swi_handler.o
IntEnable                                         Common_WinARM/src/swi_handler.o
IntGetCPSR                                        Common_WinARM/src/swi_handler.o
IntRestore                                        Common_WinARM/src/swi_handler.o
LED                                               hardware.o
                                                  main.o
LL_1khz_attitude_data                             pelican_ptu.o
                                                  i2c1.o
                                                  buzzer.o
                                                  sdk_telemetry.o
                                                  LL_HL_comm.o
LL_1khz_control_input                             LL_HL_comm.o
LL_write                                          ssp.o
LL_write_ctrl_data                                LL_HL_comm.o
LL_write_init                                     ssp.o
                                                  main.o
PTU_cam_angle_pitch_offset                        pelican_ptu.o
PTU_cam_angle_roll_offset                         pelican_ptu.o
PTU_cam_option_4_version                          main.o
                                                  pelican_ptu.o
PTU_enable_plain_ch7_to_servo                     pelican_ptu.o
                                                  main.o
PTU_init                                          pelican_ptu.o
                                                  main.o
PTU_update                                        pelican_ptu.o
                                                  main.o
PTU_update_middle_positions_by_stick              pelican_ptu.o
PWM_Init                                          system.o
RO_ALL_Data                                       main.o
                                                  sdk_telemetry.o
                                                  sdk.o
                                                  LL_HL_comm.o
RO_RC_Data                                        pelican_ptu.o
                                                  sdk.o
                                                  LL_HL_comm.o
RdIndex                                           i2c.o
SDK_EXAMPLE_attitude_commands                     sdk.o
SDK_EXAMPLE_direct_individual_motor_commands      sdk.o
SDK_EXAMPLE_direct_motor_commands_with_standard_output_mapping sdk.o
SDK_EXAMPLE_gps_waypoint_control                  sdk.o
SDK_EXAMPLE_turn_motors_off                       sdk.o
SDK_EXAMPLE_turn_motors_on                        sdk.o
SDK_SetEmergencyMode                              sdk.o
                                                  sdk_telemetry.o
SDK_jetiAscTecExampleInit                         sdk_telemetry.o
SDK_jetiAscTecExampleKeyChange                    sdk_telemetry.o
SDK_jetiAscTecExampleRun                          sdk_telemetry.o
                                                  sdk.o
SDK_jetiAscTecExampleUpdateDisplay                sdk_telemetry.o
SDK_mainloop                                      sdk.o
                                                  main.o
SERVO_pitch_move                                  pelican_ptu.o
SERVO_roll_move                                   pelican_ptu.o
SPIRDData                                         ssp.o
SPIWRData                                         ssp.o
                                                  LL_HL_comm.o
SPIWR_num_bytes                                   ssp.o
                                                  LL_HL_comm.o
SSPHandler                                        ssp.o
                                                  system.o
SSP_ack                                           LL_HL_comm.o
SSP_data_distribution_HL                          LL_HL_comm.o
SSP_receiption_complete                           ssp.o
SSP_rx_handler_HL                                 LL_HL_comm.o
                                                  ssp.o
SSP_trans_cnt                                     ssp.o
                                                  uart.o
                                                  system.o
                                                  main.o
SYSTEM_initialized                                main.o
                                                  pelican_ptu.o
                                                  ssp.o
                                                  i2c1.o
                                                  uart.o
                                                  system.o
                                                  hardware.o
                                                  buildInfoSetup.o
                                                  buzzer.o
                                                  sdk_telemetry.o
                                                  sdk.o
                                                  LL_HL_comm.o
SoftwareInterrupt                                 Common_WinARM/src/swi_handler.o
                                                  Common_WinARM/src/Startup.o
UART1Initialize                                   uart.o
                                                  ./\libublox.a(ublox.o)
                                                  system.o
UART1ReadChar                                     uart.o
UART1WriteChar                                    uart.o
UART1_rxcount                                     uart.o
UART1_rxptr                                       uart.o
UART1_send                                        uart.o
                                                  ./\libublox.a(ublox.o)
UART1_send_ringbuffer                             uart.o
UART1_syncstate                                   uart.o
UARTInitialize                                    uart.o
                                                  system.o
UARTReadChar                                      uart.o
                                                  syscalls.o
UARTWriteChar                                     uart.o
                                                  syscalls.o
                                                  main.o
UART_CalibDoneFlag                                uart.o
UART_SendPacket                                   uart.o
UART_rxcount                                      uart.o
UART_rxptr                                        uart.o
UART_send                                         uart.o
UART_send_ringbuffer                              uart.o
UART_syncstate                                    uart.o
WO_CTRL_Input                                     sdk.o
                                                  LL_HL_comm.o
WO_Direct_Individual_Motor_Control                sdk.o
                                                  LL_HL_comm.o
WO_Direct_Motor_Control                           sdk.o
                                                  LL_HL_comm.o
WO_SDK                                            main.o
                                                  sdk.o
                                                  LL_HL_comm.o
WrIndex                                           i2c.o
WrIndex1                                          i2c1.o
_Balloc                                           e:/asctec_arm_sdk/winarm/bin/../lib/gcc/arm-elf/4.1.1/../../../../arm-elf/lib/thumb/interwork\libc.a(mprec.o)
                                                  e:/asctec_arm_sdk/winarm/bin/../lib/gcc/arm-elf/4.1.1/../../../../arm-elf/lib/thumb/interwork\libc.a(dtoa.o)
_Bfree                                            e:/asctec_arm_sdk/winarm/bin/../lib/gcc/arm-elf/4.1.1/../../../../arm-elf/lib/thumb/interwork\libc.a(mprec.o)
                                                  e:/asctec_arm_sdk/winarm/bin/../lib/gcc/arm-elf/4.1.1/../../../../arm-elf/lib/thumb/interwork\libc.a(dtoa.o)
_PathLocale                                       e:/asctec_arm_sdk/winarm/bin/../lib/gcc/arm-elf/4.1.1/../../../../arm-elf/lib/thumb/interwork\libc.a(locale.o)
__IRQ_Wrapper                                     Common_WinARM/src/Startup.o
____adddf3_change_to_arm                          e:/asctec_arm_sdk/winarm/bin/../lib/gcc/arm-elf/4.1.1/../../../../arm-elf/lib/thumb/interwork\libg.a(errno.o)
____adddf3_from_thumb                             e:/asctec_arm_sdk/winarm/bin/../lib/gcc/arm-elf/4.1.1/../../../../arm-elf/lib/thumb/interwork\libg.a(errno.o)
____divdf3_change_to_arm                          e:/asctec_arm_sdk/winarm/bin/../lib/gcc/arm-elf/4.1.1/../../../../arm-elf/lib/thumb/interwork\libg.a(errno.o)
____divdf3_from_thumb                             e:/asctec_arm_sdk/winarm/bin/../lib/gcc/arm-elf/4.1.1/../../../../arm-elf/lib/thumb/interwork\libg.a(errno.o)
____divsi3_from_arm                               e:/asctec_arm_sdk/winarm/bin/../lib/gcc/arm-elf/4.1.1/../../../../arm-elf/lib/thumb/interwork\libg.a(errno.o)
____eqdf2_change_to_arm                           e:/asctec_arm_sdk/winarm/bin/../lib/gcc/arm-elf/4.1.1/../../../../arm-elf/lib/thumb/interwork\libg.a(errno.o)
____eqdf2_from_thumb                              e:/asctec_arm_sdk/winarm/bin/../lib/gcc/arm-elf/4.1.1/../../../../arm-elf/lib/thumb/interwork\libg.a(errno.o)
____fixdfsi_change_to_arm                         e:/asctec_arm_sdk/winarm/bin/../lib/gcc/arm-elf/4.1.1/../../../../arm-elf/lib/thumb/interwork\libg.a(errno.o)
____fixdfsi_from_thumb                            e:/asctec_arm_sdk/winarm/bin/../lib/gcc/arm-elf/4.1.1/../../../../arm-elf/lib/thumb/interwork\libg.a(errno.o)
____floatsidf_change_to_arm                       e:/asctec_arm_sdk/winarm/bin/../lib/gcc/arm-elf/4.1.1/../../../../arm-elf/lib/thumb/interwork\libg.a(errno.o)
____floatsidf_from_thumb                          e:/asctec_arm_sdk/winarm/bin/../lib/gcc/arm-elf/4.1.1/../../../../arm-elf/lib/thumb/interwork\libg.a(errno.o)
____gedf2_change_to_arm                           e:/asctec_arm_sdk/winarm/bin/../lib/gcc/arm-elf/4.1.1/../../../../arm-elf/lib/thumb/interwork\libg.a(errno.o)
____gedf2_from_thumb                              e:/asctec_arm_sdk/winarm/bin/../lib/gcc/arm-elf/4.1.1/../../../../arm-elf/lib/thumb/interwork\libg.a(errno.o)
____gtdf2_change_to_arm                           e:/asctec_arm_sdk/winarm/bin/../lib/gcc/arm-elf/4.1.1/../../../../arm-elf/lib/thumb/interwork\libg.a(errno.o)
____gtdf2_from_thumb                              e:/asctec_arm_sdk/winarm/bin/../lib/gcc/arm-elf/4.1.1/../../../../arm-elf/lib/thumb/interwork\libg.a(errno.o)
____ltdf2_change_to_arm                           e:/asctec_arm_sdk/winarm/bin/../lib/gcc/arm-elf/4.1.1/../../../../arm-elf/lib/thumb/interwork\libg.a(errno.o)
____ltdf2_from_thumb                              e:/asctec_arm_sdk/winarm/bin/../lib/gcc/arm-elf/4.1.1/../../../../arm-elf/lib/thumb/interwork\libg.a(errno.o)
____muldf3_change_to_arm                          e:/asctec_arm_sdk/winarm/bin/../lib/gcc/arm-elf/4.1.1/../../../../arm-elf/lib/thumb/interwork\libg.a(errno.o)
____muldf3_from_thumb                             e:/asctec_arm_sdk/winarm/bin/../lib/gcc/arm-elf/4.1.1/../../../../arm-elf/lib/thumb/interwork\libg.a(errno.o)
____nedf2_change_to_arm                           e:/asctec_arm_sdk/winarm/bin/../lib/gcc/arm-elf/4.1.1/../../../../arm-elf/lib/thumb/interwork\libg.a(errno.o)
____nedf2_from_thumb                              e:/asctec_arm_sdk/winarm/bin/../lib/gcc/arm-elf/4.1.1/../../../../arm-elf/lib/thumb/interwork\libg.a(errno.o)
____subdf3_change_to_arm                          e:/asctec_arm_sdk/winarm/bin/../lib/gcc/arm-elf/4.1.1/../../../../arm-elf/lib/thumb/interwork\libg.a(errno.o)
____subdf3_from_thumb                             e:/asctec_arm_sdk/winarm/bin/../lib/gcc/arm-elf/4.1.1/../../../../arm-elf/lib/thumb/interwork\libg.a(errno.o)
____udivsi3_from_arm                              e:/asctec_arm_sdk/winarm/bin/../lib/gcc/arm-elf/4.1.1/../../../../arm-elf/lib/thumb/interwork\libg.a(errno.o)
___close_r_change_to_arm                          e:/asctec_arm_sdk/winarm/bin/../lib/gcc/arm-elf/4.1.1/../../../../arm-elf/lib/thumb/interwork\libg.a(errno.o)
___close_r_from_thumb                             e:/asctec_arm_sdk/winarm/bin/../lib/gcc/arm-elf/4.1.1/../../../../arm-elf/lib/thumb/interwork\libg.a(errno.o)
___fstat_r_change_to_arm                          e:/asctec_arm_sdk/winarm/bin/../lib/gcc/arm-elf/4.1.1/../../../../arm-elf/lib/thumb/interwork\libg.a(errno.o)
___fstat_r_from_thumb                             e:/asctec_arm_sdk/winarm/bin/../lib/gcc/arm-elf/4.1.1/../../../../arm-elf/lib/thumb/interwork\libg.a(errno.o)
___lseek_r_change_to_arm                          e:/asctec_arm_sdk/winarm/bin/../lib/gcc/arm-elf/4.1.1/../../../../arm-elf/lib/thumb/interwork\libg.a(errno.o)
___lseek_r_from_thumb                             e:/asctec_arm_sdk/winarm/bin/../lib/gcc/arm-elf/4.1.1/../../../../arm-elf/lib/thumb/interwork\libg.a(errno.o)
___read_r_change_to_arm                           e:/asctec_arm_sdk/winarm/bin/../lib/gcc/arm-elf/4.1.1/../../../../arm-elf/lib/thumb/interwork\libg.a(errno.o)
___read_r_from_thumb                              e:/asctec_arm_sdk/winarm/bin/../lib/gcc/arm-elf/4.1.1/../../../../arm-elf/lib/thumb/interwork\libg.a(errno.o)
___sbrk_r_change_to_arm                           e:/asctec_arm_sdk/winarm/bin/../lib/gcc/arm-elf/4.1.1/../../../../arm-elf/lib/thumb/interwork\libg.a(errno.o)
___sbrk_r_from_thumb                              e:/asctec_arm_sdk/winarm/bin/../lib/gcc/arm-elf/4.1.1/../../../../arm-elf/lib/thumb/interwork\libg.a(errno.o)
___write_r_change_to_arm                          e:/asctec_arm_sdk/winarm/bin/../lib/gcc/arm-elf/4.1.1/../../../../arm-elf/lib/thumb/interwork\libg.a(errno.o)
___write_r_from_thumb                             e:/asctec_arm_sdk/winarm/bin/../lib/gcc/arm-elf/4.1.1/../../../../arm-elf/lib/thumb/interwork\libg.a(errno.o)
__adddf3                                          e:/asctec_arm_sdk/winarm/bin/../lib/gcc/arm-elf/4.1.1/thumb/interwork\libgcc.a(_addsubdf3.o)
                                                  e:/asctec_arm_sdk/winarm/bin/../lib/gcc/arm-elf/4.1.1/../../../../arm-elf/lib/thumb/interwork\libm.a(s_scalbn.o)
                                                  e:/asctec_arm_sdk/winarm/bin/../lib/gcc/arm-elf/4.1.1/../../../../arm-elf/lib/thumb/interwork\libm.a(s_floor.o)
                                                  e:/asctec_arm_sdk/winarm/bin/../lib/gcc/arm-elf/4.1.1/../../../../arm-elf/lib/thumb/interwork\libm.a(s_atan.o)
                                                  e:/asctec_arm_sdk/winarm/bin/../lib/gcc/arm-elf/4.1.1/../../../../arm-elf/lib/thumb/interwork\libm.a(k_sin.o)
                                                  e:/asctec_arm_sdk/winarm/bin/../lib/gcc/arm-elf/4.1.1/../../../../arm-elf/lib/thumb/interwork\libm.a(k_rem_pio2.o)
                                                  e:/asctec_arm_sdk/winarm/bin/../lib/gcc/arm-elf/4.1.1/../../../../arm-elf/lib/thumb/interwork\libm.a(k_cos.o)
                                                  e:/asctec_arm_sdk/winarm/bin/../lib/gcc/arm-elf/4.1.1/../../../../arm-elf/lib/thumb/interwork\libm.a(e_sqrt.o)
                                                  e:/asctec_arm_sdk/winarm/bin/../lib/gcc/arm-elf/4.1.1/../../../../arm-elf/lib/thumb/interwork\libm.a(e_rem_pio2.o)
                                                  e:/asctec_arm_sdk/winarm/bin/../lib/gcc/arm-elf/4.1.1/../../../../arm-elf/lib/thumb/interwork\libm.a(e_atan2.o)
                                                  ./\libdeclination.a(declination.o)
                                                  e:/asctec_arm_sdk/winarm/bin/../lib/gcc/arm-elf/4.1.1/../../../../arm-elf/lib/thumb/interwork\libc.a(dtoa.o)
                                                  gpsmath.o
__addsf3                                          e:/asctec_arm_sdk/winarm/bin/../lib/gcc/arm-elf/4.1.1/thumb/interwork\libgcc.a(_addsubsf3.o)
                                                  ./\libdeclination.a(declination.o)
__aeabi_cdcmpeq                                   e:/asctec_arm_sdk/winarm/bin/../lib/gcc/arm-elf/4.1.1/thumb/interwork\libgcc.a(_cmpdf2.o)
__aeabi_cdcmple                                   e:/asctec_arm_sdk/winarm/bin/../lib/gcc/arm-elf/4.1.1/thumb/interwork\libgcc.a(_cmpdf2.o)
__aeabi_cdrcmple                                  e:/asctec_arm_sdk/winarm/bin/../lib/gcc/arm-elf/4.1.1/thumb/interwork\libgcc.a(_cmpdf2.o)
__aeabi_cfcmpeq                                   e:/asctec_arm_sdk/winarm/bin/../lib/gcc/arm-elf/4.1.1/thumb/interwork\libgcc.a(_cmpsf2.o)
__aeabi_cfcmple                                   e:/asctec_arm_sdk/winarm/bin/../lib/gcc/arm-elf/4.1.1/thumb/interwork\libgcc.a(_cmpsf2.o)
__aeabi_cfrcmple                                  e:/asctec_arm_sdk/winarm/bin/../lib/gcc/arm-elf/4.1.1/thumb/interwork\libgcc.a(_cmpsf2.o)
__aeabi_d2f                                       e:/asctec_arm_sdk/winarm/bin/../lib/gcc/arm-elf/4.1.1/thumb/interwork\libgcc.a(_truncdfsf2.o)
__aeabi_d2iz                                      e:/asctec_arm_sdk/winarm/bin/../lib/gcc/arm-elf/4.1.1/thumb/interwork\libgcc.a(_fixdfsi.o)
__aeabi_dadd                                      e:/asctec_arm_sdk/winarm/bin/../lib/gcc/arm-elf/4.1.1/thumb/interwork\libgcc.a(_addsubdf3.o)
__aeabi_dcmpeq                                    e:/asctec_arm_sdk/winarm/bin/../lib/gcc/arm-elf/4.1.1/thumb/interwork\libgcc.a(_cmpdf2.o)
__aeabi_dcmpge                                    e:/asctec_arm_sdk/winarm/bin/../lib/gcc/arm-elf/4.1.1/thumb/interwork\libgcc.a(_cmpdf2.o)
__aeabi_dcmpgt                                    e:/asctec_arm_sdk/winarm/bin/../lib/gcc/arm-elf/4.1.1/thumb/interwork\libgcc.a(_cmpdf2.o)
__aeabi_dcmple                                    e:/asctec_arm_sdk/winarm/bin/../lib/gcc/arm-elf/4.1.1/thumb/interwork\libgcc.a(_cmpdf2.o)
__aeabi_dcmplt                                    e:/asctec_arm_sdk/winarm/bin/../lib/gcc/arm-elf/4.1.1/thumb/interwork\libgcc.a(_cmpdf2.o)
__aeabi_ddiv                                      e:/asctec_arm_sdk/winarm/bin/../lib/gcc/arm-elf/4.1.1/thumb/interwork\libgcc.a(_muldivdf3.o)
__aeabi_dmul                                      e:/asctec_arm_sdk/winarm/bin/../lib/gcc/arm-elf/4.1.1/thumb/interwork\libgcc.a(_muldivdf3.o)
__aeabi_drsub                                     e:/asctec_arm_sdk/winarm/bin/../lib/gcc/arm-elf/4.1.1/thumb/interwork\libgcc.a(_addsubdf3.o)
__aeabi_dsub                                      e:/asctec_arm_sdk/winarm/bin/../lib/gcc/arm-elf/4.1.1/thumb/interwork\libgcc.a(_addsubdf3.o)
__aeabi_f2d                                       e:/asctec_arm_sdk/winarm/bin/../lib/gcc/arm-elf/4.1.1/thumb/interwork\libgcc.a(_addsubdf3.o)
__aeabi_f2iz                                      e:/asctec_arm_sdk/winarm/bin/../lib/gcc/arm-elf/4.1.1/thumb/interwork\libgcc.a(_fixsfsi.o)
__aeabi_fadd                                      e:/asctec_arm_sdk/winarm/bin/../lib/gcc/arm-elf/4.1.1/thumb/interwork\libgcc.a(_addsubsf3.o)
__aeabi_fcmpeq                                    e:/asctec_arm_sdk/winarm/bin/../lib/gcc/arm-elf/4.1.1/thumb/interwork\libgcc.a(_cmpsf2.o)
__aeabi_fcmpge                                    e:/asctec_arm_sdk/winarm/bin/../lib/gcc/arm-elf/4.1.1/thumb/interwork\libgcc.a(_cmpsf2.o)
__aeabi_fcmpgt                                    e:/asctec_arm_sdk/winarm/bin/../lib/gcc/arm-elf/4.1.1/thumb/interwork\libgcc.a(_cmpsf2.o)
__aeabi_fcmple                                    e:/asctec_arm_sdk/winarm/bin/../lib/gcc/arm-elf/4.1.1/thumb/interwork\libgcc.a(_cmpsf2.o)
__aeabi_fcmplt                                    e:/asctec_arm_sdk/winarm/bin/../lib/gcc/arm-elf/4.1.1/thumb/interwork\libgcc.a(_cmpsf2.o)
__aeabi_fdiv                                      e:/asctec_arm_sdk/winarm/bin/../lib/gcc/arm-elf/4.1.1/thumb/interwork\libgcc.a(_muldivsf3.o)
__aeabi_fmul                                      e:/asctec_arm_sdk/winarm/bin/../lib/gcc/arm-elf/4.1.1/thumb/interwork\libgcc.a(_muldivsf3.o)
__aeabi_frsub                                     e:/asctec_arm_sdk/winarm/bin/../lib/gcc/arm-elf/4.1.1/thumb/interwork\libgcc.a(_addsubsf3.o)
__aeabi_fsub                                      e:/asctec_arm_sdk/winarm/bin/../lib/gcc/arm-elf/4.1.1/thumb/interwork\libgcc.a(_addsubsf3.o)
__aeabi_i2d                                       e:/asctec_arm_sdk/winarm/bin/../lib/gcc/arm-elf/4.1.1/thumb/interwork\libgcc.a(_addsubdf3.o)
__aeabi_i2f                                       e:/asctec_arm_sdk/winarm/bin/../lib/gcc/arm-elf/4.1.1/thumb/interwork\libgcc.a(_addsubsf3.o)
__aeabi_idiv                                      e:/asctec_arm_sdk/winarm/bin/../lib/gcc/arm-elf/4.1.1/thumb/interwork\libgcc.a(_divsi3.o)
__aeabi_idiv0                                     e:/asctec_arm_sdk/winarm/bin/../lib/gcc/arm-elf/4.1.1/thumb/interwork\libgcc.a(_dvmd_tls.o)
__aeabi_idivmod                                   e:/asctec_arm_sdk/winarm/bin/../lib/gcc/arm-elf/4.1.1/thumb/interwork\libgcc.a(_divsi3.o)
__aeabi_l2d                                       e:/asctec_arm_sdk/winarm/bin/../lib/gcc/arm-elf/4.1.1/thumb/interwork\libgcc.a(_addsubdf3.o)
__aeabi_l2f                                       e:/asctec_arm_sdk/winarm/bin/../lib/gcc/arm-elf/4.1.1/thumb/interwork\libgcc.a(_addsubsf3.o)
__aeabi_ldiv0                                     e:/asctec_arm_sdk/winarm/bin/../lib/gcc/arm-elf/4.1.1/thumb/interwork\libgcc.a(_dvmd_tls.o)
__aeabi_ui2d                                      e:/asctec_arm_sdk/winarm/bin/../lib/gcc/arm-elf/4.1.1/thumb/interwork\libgcc.a(_addsubdf3.o)
__aeabi_ui2f                                      e:/asctec_arm_sdk/winarm/bin/../lib/gcc/arm-elf/4.1.1/thumb/interwork\libgcc.a(_addsubsf3.o)
__aeabi_uidiv                                     e:/asctec_arm_sdk/winarm/bin/../lib/gcc/arm-elf/4.1.1/thumb/interwork\libgcc.a(_udivsi3.o)
__aeabi_uidivmod                                  e:/asctec_arm_sdk/winarm/bin/../lib/gcc/arm-elf/4.1.1/thumb/interwork\libgcc.a(_udivsi3.o)
__aeabi_ul2d                                      e:/asctec_arm_sdk/winarm/bin/../lib/gcc/arm-elf/4.1.1/thumb/interwork\libgcc.a(_addsubdf3.o)
__aeabi_ul2f                                      e:/asctec_arm_sdk/winarm/bin/../lib/gcc/arm-elf/4.1.1/thumb/interwork\libgcc.a(_addsubsf3.o)
__atan2_from_arm                                  e:/asctec_arm_sdk/winarm/bin/../lib/gcc/arm-elf/4.1.1/../../../../arm-elf/lib/thumb/interwork\libg.a(errno.o)
__bss_end__                                       Common_WinARM/src/Startup.o
__bss_start__                                     Common_WinARM/src/Startup.o
__cmpdf2                                          e:/asctec_arm_sdk/winarm/bin/../lib/gcc/arm-elf/4.1.1/thumb/interwork\libgcc.a(_cmpdf2.o)
__cmpsf2                                          e:/asctec_arm_sdk/winarm/bin/../lib/gcc/arm-elf/4.1.1/thumb/interwork\libgcc.a(_cmpsf2.o)
__cos_from_arm                                    e:/asctec_arm_sdk/winarm/bin/../lib/gcc/arm-elf/4.1.1/../../../../arm-elf/lib/thumb/interwork\libg.a(errno.o)
__ctors_end__                                     Common_WinARM/src/Startup.o
__ctors_start__                                   Common_WinARM/src/Startup.o
__div0                                            e:/asctec_arm_sdk/winarm/bin/../lib/gcc/arm-elf/4.1.1/thumb/interwork\libgcc.a(_dvmd_tls.o)
                                                  e:/asctec_arm_sdk/winarm/bin/../lib/gcc/arm-elf/4.1.1/thumb/interwork\libgcc.a(_modsi3.o)
                                                  e:/asctec_arm_sdk/winarm/bin/../lib/gcc/arm-elf/4.1.1/thumb/interwork\libgcc.a(_umodsi3.o)
                                                  e:/asctec_arm_sdk/winarm/bin/../lib/gcc/arm-elf/4.1.1/thumb/interwork\libgcc.a(_divsi3.o)
                                                  e:/asctec_arm_sdk/winarm/bin/../lib/gcc/arm-elf/4.1.1/thumb/interwork\libgcc.a(_udivsi3.o)
__divdf3                                          e:/asctec_arm_sdk/winarm/bin/../lib/gcc/arm-elf/4.1.1/thumb/interwork\libgcc.a(_muldivdf3.o)
                                                  e:/asctec_arm_sdk/winarm/bin/../lib/gcc/arm-elf/4.1.1/../../../../arm-elf/lib/thumb/interwork\libm.a(s_atan.o)
                                                  e:/asctec_arm_sdk/winarm/bin/../lib/gcc/arm-elf/4.1.1/../../../../arm-elf/lib/thumb/interwork\libm.a(e_sqrt.o)
                                                  e:/asctec_arm_sdk/winarm/bin/../lib/gcc/arm-elf/4.1.1/../../../../arm-elf/lib/thumb/interwork\libm.a(e_atan2.o)
                                                  e:/asctec_arm_sdk/winarm/bin/../lib/gcc/arm-elf/4.1.1/../../../../arm-elf/lib/thumb/interwork\libm.a(w_sqrt.o)
                                                  ./\libdeclination.a(declination.o)
                                                  e:/asctec_arm_sdk/winarm/bin/../lib/gcc/arm-elf/4.1.1/../../../../arm-elf/lib/thumb/interwork\libc.a(mprec.o)
                                                  e:/asctec_arm_sdk/winarm/bin/../lib/gcc/arm-elf/4.1.1/../../../../arm-elf/lib/thumb/interwork\libc.a(dtoa.o)
                                                  sdk.o
                                                  gpsmath.o
__divsf3                                          e:/asctec_arm_sdk/winarm/bin/../lib/gcc/arm-elf/4.1.1/thumb/interwork\libgcc.a(_muldivsf3.o)
                                                  ./\libdeclination.a(declination.o)
__divsi3                                          e:/asctec_arm_sdk/winarm/bin/../lib/gcc/arm-elf/4.1.1/thumb/interwork\libgcc.a(_divsi3.o)
                                                  e:/asctec_arm_sdk/winarm/bin/../lib/gcc/arm-elf/4.1.1/../../../../arm-elf/lib/thumb/interwork\libm.a(k_rem_pio2.o)
                                                  ./\libdeclination.a(declination.o)
                                                  e:/asctec_arm_sdk/winarm/bin/../lib/gcc/arm-elf/4.1.1/../../../../arm-elf/lib/thumb/interwork\libc.a(mprec.o)
                                                  e:/asctec_arm_sdk/winarm/bin/../lib/gcc/arm-elf/4.1.1/../../../../arm-elf/lib/thumb/interwork\libc.a(vfprintf.o)
                                                  mymath.o
__eqdf2                                           e:/asctec_arm_sdk/winarm/bin/../lib/gcc/arm-elf/4.1.1/thumb/interwork\libgcc.a(_cmpdf2.o)
                                                  e:/asctec_arm_sdk/winarm/bin/../lib/gcc/arm-elf/4.1.1/../../../../arm-elf/lib/thumb/interwork\libm.a(k_rem_pio2.o)
                                                  e:/asctec_arm_sdk/winarm/bin/../lib/gcc/arm-elf/4.1.1/../../../../arm-elf/lib/thumb/interwork\libm.a(e_rem_pio2.o)
                                                  e:/asctec_arm_sdk/winarm/bin/../lib/gcc/arm-elf/4.1.1/../../../../arm-elf/lib/thumb/interwork\libm.a(w_atan2.o)
                                                  e:/asctec_arm_sdk/winarm/bin/../lib/gcc/arm-elf/4.1.1/../../../../arm-elf/lib/thumb/interwork\libc.a(dtoa.o)
                                                  e:/asctec_arm_sdk/winarm/bin/../lib/gcc/arm-elf/4.1.1/../../../../arm-elf/lib/thumb/interwork\libc.a(vfprintf.o)
__eqsf2                                           e:/asctec_arm_sdk/winarm/bin/../lib/gcc/arm-elf/4.1.1/thumb/interwork\libgcc.a(_cmpsf2.o)
                                                  ./\libdeclination.a(declination.o)
__errno                                           e:/asctec_arm_sdk/winarm/bin/../lib/gcc/arm-elf/4.1.1/../../../../arm-elf/lib/thumb/interwork\libg.a(errno.o)
                                                  e:/asctec_arm_sdk/winarm/bin/../lib/gcc/arm-elf/4.1.1/../../../../arm-elf/lib/thumb/interwork\libm.a(w_sqrt.o)
                                                  e:/asctec_arm_sdk/winarm/bin/../lib/gcc/arm-elf/4.1.1/../../../../arm-elf/lib/thumb/interwork\libm.a(w_atan2.o)
__exit_ARM                                        Common_WinARM/src/Startup.o
__exit_THUMB                                      Common_WinARM/src/Startup.o
__extendsfdf2                                     e:/asctec_arm_sdk/winarm/bin/../lib/gcc/arm-elf/4.1.1/thumb/interwork\libgcc.a(_addsubdf3.o)
                                                  ./\libdeclination.a(declination.o)
__fdlib_version                                   e:/asctec_arm_sdk/winarm/bin/../lib/gcc/arm-elf/4.1.1/../../../../arm-elf/lib/thumb/interwork\libm.a(s_lib_ver.o)
                                                  e:/asctec_arm_sdk/winarm/bin/../lib/gcc/arm-elf/4.1.1/../../../../arm-elf/lib/thumb/interwork\libm.a(w_sqrt.o)
                                                  e:/asctec_arm_sdk/winarm/bin/../lib/gcc/arm-elf/4.1.1/../../../../arm-elf/lib/thumb/interwork\libm.a(w_atan2.o)
__fixdfsi                                         e:/asctec_arm_sdk/winarm/bin/../lib/gcc/arm-elf/4.1.1/thumb/interwork\libgcc.a(_fixdfsi.o)
                                                  e:/asctec_arm_sdk/winarm/bin/../lib/gcc/arm-elf/4.1.1/../../../../arm-elf/lib/thumb/interwork\libm.a(k_sin.o)
                                                  e:/asctec_arm_sdk/winarm/bin/../lib/gcc/arm-elf/4.1.1/../../../../arm-elf/lib/thumb/interwork\libm.a(k_rem_pio2.o)
                                                  e:/asctec_arm_sdk/winarm/bin/../lib/gcc/arm-elf/4.1.1/../../../../arm-elf/lib/thumb/interwork\libm.a(k_cos.o)
                                                  e:/asctec_arm_sdk/winarm/bin/../lib/gcc/arm-elf/4.1.1/../../../../arm-elf/lib/thumb/interwork\libm.a(e_rem_pio2.o)
                                                  ./\libdeclination.a(declination.o)
                                                  e:/asctec_arm_sdk/winarm/bin/../lib/gcc/arm-elf/4.1.1/../../../../arm-elf/lib/thumb/interwork\libc.a(dtoa.o)
                                                  sdk.o
__fixsfsi                                         e:/asctec_arm_sdk/winarm/bin/../lib/gcc/arm-elf/4.1.1/thumb/interwork\libgcc.a(_fixsfsi.o)
                                                  ./\libdeclination.a(declination.o)
__floatdidf                                       e:/asctec_arm_sdk/winarm/bin/../lib/gcc/arm-elf/4.1.1/thumb/interwork\libgcc.a(_addsubdf3.o)
__floatdisf                                       e:/asctec_arm_sdk/winarm/bin/../lib/gcc/arm-elf/4.1.1/thumb/interwork\libgcc.a(_addsubsf3.o)
__floatsidf                                       e:/asctec_arm_sdk/winarm/bin/../lib/gcc/arm-elf/4.1.1/thumb/interwork\libgcc.a(_addsubdf3.o)
                                                  e:/asctec_arm_sdk/winarm/bin/../lib/gcc/arm-elf/4.1.1/../../../../arm-elf/lib/thumb/interwork\libm.a(k_rem_pio2.o)
                                                  e:/asctec_arm_sdk/winarm/bin/../lib/gcc/arm-elf/4.1.1/../../../../arm-elf/lib/thumb/interwork\libm.a(e_rem_pio2.o)
                                                  e:/asctec_arm_sdk/winarm/bin/../lib/gcc/arm-elf/4.1.1/../../../../arm-elf/lib/thumb/interwork\libc.a(dtoa.o)
                                                  sdk.o
__floatsisf                                       e:/asctec_arm_sdk/winarm/bin/../lib/gcc/arm-elf/4.1.1/thumb/interwork\libgcc.a(_addsubsf3.o)
                                                  ./\libdeclination.a(declination.o)
__floatundidf                                     e:/asctec_arm_sdk/winarm/bin/../lib/gcc/arm-elf/4.1.1/thumb/interwork\libgcc.a(_addsubdf3.o)
__floatundisf                                     e:/asctec_arm_sdk/winarm/bin/../lib/gcc/arm-elf/4.1.1/thumb/interwork\libgcc.a(_addsubsf3.o)
__floatunsidf                                     e:/asctec_arm_sdk/winarm/bin/../lib/gcc/arm-elf/4.1.1/thumb/interwork\libgcc.a(_addsubdf3.o)
__floatunsisf                                     e:/asctec_arm_sdk/winarm/bin/../lib/gcc/arm-elf/4.1.1/thumb/interwork\libgcc.a(_addsubsf3.o)
__fp_lock_all                                     e:/asctec_arm_sdk/winarm/bin/../lib/gcc/arm-elf/4.1.1/../../../../arm-elf/lib/thumb/interwork\libc.a(findfp.o)
__fp_unlock_all                                   e:/asctec_arm_sdk/winarm/bin/../lib/gcc/arm-elf/4.1.1/../../../../arm-elf/lib/thumb/interwork\libc.a(findfp.o)
__gedf2                                           e:/asctec_arm_sdk/winarm/bin/../lib/gcc/arm-elf/4.1.1/thumb/interwork\libgcc.a(_cmpdf2.o)
                                                  e:/asctec_arm_sdk/winarm/bin/../lib/gcc/arm-elf/4.1.1/../../../../arm-elf/lib/thumb/interwork\libm.a(k_rem_pio2.o)
                                                  e:/asctec_arm_sdk/winarm/bin/../lib/gcc/arm-elf/4.1.1/../../../../arm-elf/lib/thumb/interwork\libc.a(dtoa.o)
__gesf2                                           e:/asctec_arm_sdk/winarm/bin/../lib/gcc/arm-elf/4.1.1/thumb/interwork\libgcc.a(_cmpsf2.o)
                                                  ./\libdeclination.a(declination.o)
__gtdf2                                           e:/asctec_arm_sdk/winarm/bin/../lib/gcc/arm-elf/4.1.1/thumb/interwork\libgcc.a(_cmpdf2.o)
                                                  e:/asctec_arm_sdk/winarm/bin/../lib/gcc/arm-elf/4.1.1/../../../../arm-elf/lib/thumb/interwork\libm.a(s_floor.o)
                                                  e:/asctec_arm_sdk/winarm/bin/../lib/gcc/arm-elf/4.1.1/../../../../arm-elf/lib/thumb/interwork\libm.a(s_atan.o)
                                                  e:/asctec_arm_sdk/winarm/bin/../lib/gcc/arm-elf/4.1.1/../../../../arm-elf/lib/thumb/interwork\libc.a(dtoa.o)
__gtsf2                                           e:/asctec_arm_sdk/winarm/bin/../lib/gcc/arm-elf/4.1.1/thumb/interwork\libgcc.a(_cmpsf2.o)
                                                  ./\libdeclination.a(declination.o)
__ieee754_atan2                                   e:/asctec_arm_sdk/winarm/bin/../lib/gcc/arm-elf/4.1.1/../../../../arm-elf/lib/thumb/interwork\libm.a(e_atan2.o)
                                                  e:/asctec_arm_sdk/winarm/bin/../lib/gcc/arm-elf/4.1.1/../../../../arm-elf/lib/thumb/interwork\libm.a(w_atan2.o)
__ieee754_rem_pio2                                e:/asctec_arm_sdk/winarm/bin/../lib/gcc/arm-elf/4.1.1/../../../../arm-elf/lib/thumb/interwork\libm.a(e_rem_pio2.o)
                                                  e:/asctec_arm_sdk/winarm/bin/../lib/gcc/arm-elf/4.1.1/../../../../arm-elf/lib/thumb/interwork\libm.a(s_sin.o)
                                                  e:/asctec_arm_sdk/winarm/bin/../lib/gcc/arm-elf/4.1.1/../../../../arm-elf/lib/thumb/interwork\libm.a(s_cos.o)
__ieee754_sqrt                                    e:/asctec_arm_sdk/winarm/bin/../lib/gcc/arm-elf/4.1.1/../../../../arm-elf/lib/thumb/interwork\libm.a(e_sqrt.o)
                                                  e:/asctec_arm_sdk/winarm/bin/../lib/gcc/arm-elf/4.1.1/../../../../arm-elf/lib/thumb/interwork\libm.a(w_sqrt.o)
__isatty_change_to_arm                            e:/asctec_arm_sdk/winarm/bin/../lib/gcc/arm-elf/4.1.1/../../../../arm-elf/lib/thumb/interwork\libg.a(errno.o)
__isatty_from_thumb                               e:/asctec_arm_sdk/winarm/bin/../lib/gcc/arm-elf/4.1.1/../../../../arm-elf/lib/thumb/interwork\libg.a(errno.o)
__kernel_cos                                      e:/asctec_arm_sdk/winarm/bin/../lib/gcc/arm-elf/4.1.1/../../../../arm-elf/lib/thumb/interwork\libm.a(k_cos.o)
                                                  e:/asctec_arm_sdk/winarm/bin/../lib/gcc/arm-elf/4.1.1/../../../../arm-elf/lib/thumb/interwork\libm.a(s_sin.o)
                                                  e:/asctec_arm_sdk/winarm/bin/../lib/gcc/arm-elf/4.1.1/../../../../arm-elf/lib/thumb/interwork\libm.a(s_cos.o)
__kernel_rem_pio2                                 e:/asctec_arm_sdk/winarm/bin/../lib/gcc/arm-elf/4.1.1/../../../../arm-elf/lib/thumb/interwork\libm.a(k_rem_pio2.o)
                                                  e:/asctec_arm_sdk/winarm/bin/../lib/gcc/arm-elf/4.1.1/../../../../arm-elf/lib/thumb/interwork\libm.a(e_rem_pio2.o)
__kernel_sin                                      e:/asctec_arm_sdk/winarm/bin/../lib/gcc/arm-elf/4.1.1/../../../../arm-elf/lib/thumb/interwork\libm.a(k_sin.o)
                                                  e:/asctec_arm_sdk/winarm/bin/../lib/gcc/arm-elf/4.1.1/../../../../arm-elf/lib/thumb/interwork\libm.a(s_sin.o)
                                                  e:/asctec_arm_sdk/winarm/bin/../lib/gcc/arm-elf/4.1.1/../../../../arm-elf/lib/thumb/interwork\libm.a(s_cos.o)
__lc_ctype                                        e:/asctec_arm_sdk/winarm/bin/../lib/gcc/arm-elf/4.1.1/../../../../arm-elf/lib/thumb/interwork\libc.a(locale.o)
                                                  e:/asctec_arm_sdk/winarm/bin/../lib/gcc/arm-elf/4.1.1/../../../../arm-elf/lib/thumb/interwork\libc.a(wctomb_r.o)
__ledf2                                           e:/asctec_arm_sdk/winarm/bin/../lib/gcc/arm-elf/4.1.1/thumb/interwork\libgcc.a(_cmpdf2.o)
                                                  ./\libdeclination.a(declination.o)
__lesf2                                           e:/asctec_arm_sdk/winarm/bin/../lib/gcc/arm-elf/4.1.1/thumb/interwork\libgcc.a(_cmpsf2.o)
__locale_charset                                  e:/asctec_arm_sdk/winarm/bin/../lib/gcc/arm-elf/4.1.1/../../../../arm-elf/lib/thumb/interwork\libc.a(locale.o)
__ltdf2                                           e:/asctec_arm_sdk/winarm/bin/../lib/gcc/arm-elf/4.1.1/thumb/interwork\libgcc.a(_cmpdf2.o)
                                                  e:/asctec_arm_sdk/winarm/bin/../lib/gcc/arm-elf/4.1.1/../../../../arm-elf/lib/thumb/interwork\libm.a(w_sqrt.o)
                                                  e:/asctec_arm_sdk/winarm/bin/../lib/gcc/arm-elf/4.1.1/../../../../arm-elf/lib/thumb/interwork\libc.a(dtoa.o)
                                                  e:/asctec_arm_sdk/winarm/bin/../lib/gcc/arm-elf/4.1.1/../../../../arm-elf/lib/thumb/interwork\libc.a(vfprintf.o)
__ltsf2                                           e:/asctec_arm_sdk/winarm/bin/../lib/gcc/arm-elf/4.1.1/thumb/interwork\libgcc.a(_cmpsf2.o)
                                                  ./\libdeclination.a(declination.o)
__malloc_av_                                      e:/asctec_arm_sdk/winarm/bin/../lib/gcc/arm-elf/4.1.1/../../../../arm-elf/lib/thumb/interwork\libc.a(mallocr.o)
                                                  e:/asctec_arm_sdk/winarm/bin/../lib/gcc/arm-elf/4.1.1/../../../../arm-elf/lib/thumb/interwork\libc.a(reallocr.o)
                                                  e:/asctec_arm_sdk/winarm/bin/../lib/gcc/arm-elf/4.1.1/../../../../arm-elf/lib/thumb/interwork\libc.a(freer.o)
__malloc_current_mallinfo                         e:/asctec_arm_sdk/winarm/bin/../lib/gcc/arm-elf/4.1.1/../../../../arm-elf/lib/thumb/interwork\libc.a(mallocr.o)
                                                  e:/asctec_arm_sdk/winarm/bin/../lib/gcc/arm-elf/4.1.1/../../../../arm-elf/lib/thumb/interwork\libc.a(freer.o)
__malloc_lock                                     e:/asctec_arm_sdk/winarm/bin/../lib/gcc/arm-elf/4.1.1/../../../../arm-elf/lib/thumb/interwork\libc.a(mlock.o)
                                                  e:/asctec_arm_sdk/winarm/bin/../lib/gcc/arm-elf/4.1.1/../../../../arm-elf/lib/thumb/interwork\libc.a(reallocr.o)
                                                  e:/asctec_arm_sdk/winarm/bin/../lib/gcc/arm-elf/4.1.1/../../../../arm-elf/lib/thumb/interwork\libc.a(mallocr.o)
                                                  e:/asctec_arm_sdk/winarm/bin/../lib/gcc/arm-elf/4.1.1/../../../../arm-elf/lib/thumb/interwork\libc.a(freer.o)
__malloc_max_sbrked_mem                           e:/asctec_arm_sdk/winarm/bin/../lib/gcc/arm-elf/4.1.1/../../../../arm-elf/lib/thumb/interwork\libc.a(mallocr.o)
__malloc_max_total_mem                            e:/asctec_arm_sdk/winarm/bin/../lib/gcc/arm-elf/4.1.1/../../../../arm-elf/lib/thumb/interwork\libc.a(mallocr.o)
__malloc_sbrk_base                                e:/asctec_arm_sdk/winarm/bin/../lib/gcc/arm-elf/4.1.1/../../../../arm-elf/lib/thumb/interwork\libc.a(mallocr.o)
                                                  e:/asctec_arm_sdk/winarm/bin/../lib/gcc/arm-elf/4.1.1/../../../../arm-elf/lib/thumb/interwork\libc.a(freer.o)
__malloc_top_pad                                  e:/asctec_arm_sdk/winarm/bin/../lib/gcc/arm-elf/4.1.1/../../../../arm-elf/lib/thumb/interwork\libc.a(mallocr.o)
                                                  e:/asctec_arm_sdk/winarm/bin/../lib/gcc/arm-elf/4.1.1/../../../../arm-elf/lib/thumb/interwork\libc.a(freer.o)
__malloc_trim_threshold                           e:/asctec_arm_sdk/winarm/bin/../lib/gcc/arm-elf/4.1.1/../../../../arm-elf/lib/thumb/interwork\libc.a(mallocr.o)
                                                  e:/asctec_arm_sdk/winarm/bin/../lib/gcc/arm-elf/4.1.1/../../../../arm-elf/lib/thumb/interwork\libc.a(freer.o)
__malloc_unlock                                   e:/asctec_arm_sdk/winarm/bin/../lib/gcc/arm-elf/4.1.1/../../../../arm-elf/lib/thumb/interwork\libc.a(mlock.o)
                                                  e:/asctec_arm_sdk/winarm/bin/../lib/gcc/arm-elf/4.1.1/../../../../arm-elf/lib/thumb/interwork\libc.a(reallocr.o)
                                                  e:/asctec_arm_sdk/winarm/bin/../lib/gcc/arm-elf/4.1.1/../../../../arm-elf/lib/thumb/interwork\libc.a(mallocr.o)
                                                  e:/asctec_arm_sdk/winarm/bin/../lib/gcc/arm-elf/4.1.1/../../../../arm-elf/lib/thumb/interwork\libc.a(freer.o)
__mb_cur_max                                      e:/asctec_arm_sdk/winarm/bin/../lib/gcc/arm-elf/4.1.1/../../../../arm-elf/lib/thumb/interwork\libc.a(locale.o)
__mcmp                                            e:/asctec_arm_sdk/winarm/bin/../lib/gcc/arm-elf/4.1.1/../../../../arm-elf/lib/thumb/interwork\libc.a(mprec.o)
                                                  e:/asctec_arm_sdk/winarm/bin/../lib/gcc/arm-elf/4.1.1/../../../../arm-elf/lib/thumb/interwork\libc.a(dtoa.o)
__mdiff                                           e:/asctec_arm_sdk/winarm/bin/../lib/gcc/arm-elf/4.1.1/../../../../arm-elf/lib/thumb/interwork\libc.a(mprec.o)
                                                  e:/asctec_arm_sdk/winarm/bin/../lib/gcc/arm-elf/4.1.1/../../../../arm-elf/lib/thumb/interwork\libc.a(dtoa.o)
__memcpy_from_arm                                 e:/asctec_arm_sdk/winarm/bin/../lib/gcc/arm-elf/4.1.1/../../../../arm-elf/lib/thumb/interwork\libg.a(errno.o)
__mlocale_changed                                 e:/asctec_arm_sdk/winarm/bin/../lib/gcc/arm-elf/4.1.1/../../../../arm-elf/lib/thumb/interwork\libc.a(locale.o)
__modsi3                                          e:/asctec_arm_sdk/winarm/bin/../lib/gcc/arm-elf/4.1.1/thumb/interwork\libgcc.a(_modsi3.o)
                                                  e:/asctec_arm_sdk/winarm/bin/../lib/gcc/arm-elf/4.1.1/../../../../arm-elf/lib/thumb/interwork\libc.a(vfprintf.o)
__mprec_bigtens                                   e:/asctec_arm_sdk/winarm/bin/../lib/gcc/arm-elf/4.1.1/../../../../arm-elf/lib/thumb/interwork\libc.a(mprec.o)
                                                  e:/asctec_arm_sdk/winarm/bin/../lib/gcc/arm-elf/4.1.1/../../../../arm-elf/lib/thumb/interwork\libc.a(dtoa.o)
__mprec_tens                                      e:/asctec_arm_sdk/winarm/bin/../lib/gcc/arm-elf/4.1.1/../../../../arm-elf/lib/thumb/interwork\libc.a(mprec.o)
                                                  e:/asctec_arm_sdk/winarm/bin/../lib/gcc/arm-elf/4.1.1/../../../../arm-elf/lib/thumb/interwork\libc.a(dtoa.o)
__mprec_tinytens                                  e:/asctec_arm_sdk/winarm/bin/../lib/gcc/arm-elf/4.1.1/../../../../arm-elf/lib/thumb/interwork\libc.a(mprec.o)
__muldf3                                          e:/asctec_arm_sdk/winarm/bin/../lib/gcc/arm-elf/4.1.1/thumb/interwork\libgcc.a(_muldivdf3.o)
                                                  e:/asctec_arm_sdk/winarm/bin/../lib/gcc/arm-elf/4.1.1/../../../../arm-elf/lib/thumb/interwork\libm.a(s_scalbn.o)
                                                  e:/asctec_arm_sdk/winarm/bin/../lib/gcc/arm-elf/4.1.1/../../../../arm-elf/lib/thumb/interwork\libm.a(s_atan.o)
                                                  e:/asctec_arm_sdk/winarm/bin/../lib/gcc/arm-elf/4.1.1/../../../../arm-elf/lib/thumb/interwork\libm.a(k_sin.o)
                                                  e:/asctec_arm_sdk/winarm/bin/../lib/gcc/arm-elf/4.1.1/../../../../arm-elf/lib/thumb/interwork\libm.a(k_rem_pio2.o)
                                                  e:/asctec_arm_sdk/winarm/bin/../lib/gcc/arm-elf/4.1.1/../../../../arm-elf/lib/thumb/interwork\libm.a(k_cos.o)
                                                  e:/asctec_arm_sdk/winarm/bin/../lib/gcc/arm-elf/4.1.1/../../../../arm-elf/lib/thumb/interwork\libm.a(e_sqrt.o)
                                                  e:/asctec_arm_sdk/winarm/bin/../lib/gcc/arm-elf/4.1.1/../../../../arm-elf/lib/thumb/interwork\libm.a(e_rem_pio2.o)
                                                  ./\libdeclination.a(declination.o)
                                                  e:/asctec_arm_sdk/winarm/bin/../lib/gcc/arm-elf/4.1.1/../../../../arm-elf/lib/thumb/interwork\libc.a(mprec.o)
                                                  e:/asctec_arm_sdk/winarm/bin/../lib/gcc/arm-elf/4.1.1/../../../../arm-elf/lib/thumb/interwork\libc.a(dtoa.o)
                                                  sdk.o
                                                  gpsmath.o
__mulsf3                                          e:/asctec_arm_sdk/winarm/bin/../lib/gcc/arm-elf/4.1.1/thumb/interwork\libgcc.a(_muldivsf3.o)
                                                  ./\libdeclination.a(declination.o)
__nedf2                                           e:/asctec_arm_sdk/winarm/bin/../lib/gcc/arm-elf/4.1.1/thumb/interwork\libgcc.a(_cmpdf2.o)
                                                  e:/asctec_arm_sdk/winarm/bin/../lib/gcc/arm-elf/4.1.1/../../../../arm-elf/lib/thumb/interwork\libc.a(dtoa.o)
                                                  e:/asctec_arm_sdk/winarm/bin/../lib/gcc/arm-elf/4.1.1/../../../../arm-elf/lib/thumb/interwork\libc.a(vfprintf.o)
__nesf2                                           e:/asctec_arm_sdk/winarm/bin/../lib/gcc/arm-elf/4.1.1/thumb/interwork\libgcc.a(_cmpsf2.o)
                                                  ./\libdeclination.a(declination.o)
__nlocale_changed                                 e:/asctec_arm_sdk/winarm/bin/../lib/gcc/arm-elf/4.1.1/../../../../arm-elf/lib/thumb/interwork\libc.a(locale.o)
__printf_from_arm                                 e:/asctec_arm_sdk/winarm/bin/../lib/gcc/arm-elf/4.1.1/../../../../arm-elf/lib/thumb/interwork\libg.a(errno.o)
__putchar                                         uart.o
__puts_from_arm                                   e:/asctec_arm_sdk/winarm/bin/../lib/gcc/arm-elf/4.1.1/../../../../arm-elf/lib/thumb/interwork\libg.a(errno.o)
__sclose                                          e:/asctec_arm_sdk/winarm/bin/../lib/gcc/arm-elf/4.1.1/../../../../arm-elf/lib/thumb/interwork\libc.a(stdio.o)
                                                  e:/asctec_arm_sdk/winarm/bin/../lib/gcc/arm-elf/4.1.1/../../../../arm-elf/lib/thumb/interwork\libc.a(findfp.o)
__sfmoreglue                                      e:/asctec_arm_sdk/winarm/bin/../lib/gcc/arm-elf/4.1.1/../../../../arm-elf/lib/thumb/interwork\libc.a(findfp.o)
__sfp                                             e:/asctec_arm_sdk/winarm/bin/../lib/gcc/arm-elf/4.1.1/../../../../arm-elf/lib/thumb/interwork\libc.a(findfp.o)
__sfp_lock_acquire                                e:/asctec_arm_sdk/winarm/bin/../lib/gcc/arm-elf/4.1.1/../../../../arm-elf/lib/thumb/interwork\libc.a(findfp.o)
                                                  e:/asctec_arm_sdk/winarm/bin/../lib/gcc/arm-elf/4.1.1/../../../../arm-elf/lib/thumb/interwork\libc.a(fclose.o)
                                                  e:/asctec_arm_sdk/winarm/bin/../lib/gcc/arm-elf/4.1.1/../../../../arm-elf/lib/thumb/interwork\libc.a(fwalk.o)
__sfp_lock_release                                e:/asctec_arm_sdk/winarm/bin/../lib/gcc/arm-elf/4.1.1/../../../../arm-elf/lib/thumb/interwork\libc.a(findfp.o)
                                                  e:/asctec_arm_sdk/winarm/bin/../lib/gcc/arm-elf/4.1.1/../../../../arm-elf/lib/thumb/interwork\libc.a(fclose.o)
                                                  e:/asctec_arm_sdk/winarm/bin/../lib/gcc/arm-elf/4.1.1/../../../../arm-elf/lib/thumb/interwork\libc.a(fwalk.o)
__sfvwrite                                        e:/asctec_arm_sdk/winarm/bin/../lib/gcc/arm-elf/4.1.1/../../../../arm-elf/lib/thumb/interwork\libc.a(fvwrite.o)
                                                  e:/asctec_arm_sdk/winarm/bin/../lib/gcc/arm-elf/4.1.1/../../../../arm-elf/lib/thumb/interwork\libc.a(vfprintf.o)
                                                  e:/asctec_arm_sdk/winarm/bin/../lib/gcc/arm-elf/4.1.1/../../../../arm-elf/lib/thumb/interwork\libc.a(puts.o)
__sin_from_arm                                    e:/asctec_arm_sdk/winarm/bin/../lib/gcc/arm-elf/4.1.1/../../../../arm-elf/lib/thumb/interwork\libg.a(errno.o)
__sinit                                           e:/asctec_arm_sdk/winarm/bin/../lib/gcc/arm-elf/4.1.1/../../../../arm-elf/lib/thumb/interwork\libc.a(findfp.o)
                                                  e:/asctec_arm_sdk/winarm/bin/../lib/gcc/arm-elf/4.1.1/../../../../arm-elf/lib/thumb/interwork\libc.a(fclose.o)
                                                  e:/asctec_arm_sdk/winarm/bin/../lib/gcc/arm-elf/4.1.1/../../../../arm-elf/lib/thumb/interwork\libc.a(fflush.o)
                                                  e:/asctec_arm_sdk/winarm/bin/../lib/gcc/arm-elf/4.1.1/../../../../arm-elf/lib/thumb/interwork\libc.a(wsetup.o)
                                                  e:/asctec_arm_sdk/winarm/bin/../lib/gcc/arm-elf/4.1.1/../../../../arm-elf/lib/thumb/interwork\libc.a(vfprintf.o)
__sinit_lock_acquire                              e:/asctec_arm_sdk/winarm/bin/../lib/gcc/arm-elf/4.1.1/../../../../arm-elf/lib/thumb/interwork\libc.a(findfp.o)
__sinit_lock_release                              e:/asctec_arm_sdk/winarm/bin/../lib/gcc/arm-elf/4.1.1/../../../../arm-elf/lib/thumb/interwork\libc.a(findfp.o)
__smakebuf                                        e:/asctec_arm_sdk/winarm/bin/../lib/gcc/arm-elf/4.1.1/../../../../arm-elf/lib/thumb/interwork\libc.a(makebuf.o)
                                                  e:/asctec_arm_sdk/winarm/bin/../lib/gcc/arm-elf/4.1.1/../../../../arm-elf/lib/thumb/interwork\libc.a(wsetup.o)
__sprintf_from_arm                                e:/asctec_arm_sdk/winarm/bin/../lib/gcc/arm-elf/4.1.1/../../../../arm-elf/lib/thumb/interwork\libg.a(errno.o)
__sqrt_from_arm                                   e:/asctec_arm_sdk/winarm/bin/../lib/gcc/arm-elf/4.1.1/../../../../arm-elf/lib/thumb/interwork\libg.a(errno.o)
__sread                                           e:/asctec_arm_sdk/winarm/bin/../lib/gcc/arm-elf/4.1.1/../../../../arm-elf/lib/thumb/interwork\libc.a(stdio.o)
                                                  e:/asctec_arm_sdk/winarm/bin/../lib/gcc/arm-elf/4.1.1/../../../../arm-elf/lib/thumb/interwork\libc.a(findfp.o)
__sseek                                           e:/asctec_arm_sdk/winarm/bin/../lib/gcc/arm-elf/4.1.1/../../../../arm-elf/lib/thumb/interwork\libc.a(stdio.o)
                                                  e:/asctec_arm_sdk/winarm/bin/../lib/gcc/arm-elf/4.1.1/../../../../arm-elf/lib/thumb/interwork\libc.a(makebuf.o)
                                                  e:/asctec_arm_sdk/winarm/bin/../lib/gcc/arm-elf/4.1.1/../../../../arm-elf/lib/thumb/interwork\libc.a(findfp.o)
__startup                                         Common_WinARM/src/Startup.o
__strcpy_from_arm                                 e:/asctec_arm_sdk/winarm/bin/../lib/gcc/arm-elf/4.1.1/../../../../arm-elf/lib/thumb/interwork\libg.a(errno.o)
__strlen_from_arm                                 e:/asctec_arm_sdk/winarm/bin/../lib/gcc/arm-elf/4.1.1/../../../../arm-elf/lib/thumb/interwork\libg.a(errno.o)
__subdf3                                          e:/asctec_arm_sdk/winarm/bin/../lib/gcc/arm-elf/4.1.1/thumb/interwork\libgcc.a(_addsubdf3.o)
                                                  e:/asctec_arm_sdk/winarm/bin/../lib/gcc/arm-elf/4.1.1/../../../../arm-elf/lib/thumb/interwork\libm.a(s_atan.o)
                                                  e:/asctec_arm_sdk/winarm/bin/../lib/gcc/arm-elf/4.1.1/../../../../arm-elf/lib/thumb/interwork\libm.a(k_sin.o)
                                                  e:/asctec_arm_sdk/winarm/bin/../lib/gcc/arm-elf/4.1.1/../../../../arm-elf/lib/thumb/interwork\libm.a(k_rem_pio2.o)
                                                  e:/asctec_arm_sdk/winarm/bin/../lib/gcc/arm-elf/4.1.1/../../../../arm-elf/lib/thumb/interwork\libm.a(k_cos.o)
                                                  e:/asctec_arm_sdk/winarm/bin/../lib/gcc/arm-elf/4.1.1/../../../../arm-elf/lib/thumb/interwork\libm.a(e_sqrt.o)
                                                  e:/asctec_arm_sdk/winarm/bin/../lib/gcc/arm-elf/4.1.1/../../../../arm-elf/lib/thumb/interwork\libm.a(e_rem_pio2.o)
                                                  e:/asctec_arm_sdk/winarm/bin/../lib/gcc/arm-elf/4.1.1/../../../../arm-elf/lib/thumb/interwork\libm.a(e_atan2.o)
                                                  e:/asctec_arm_sdk/winarm/bin/../lib/gcc/arm-elf/4.1.1/../../../../arm-elf/lib/thumb/interwork\libm.a(s_sin.o)
                                                  e:/asctec_arm_sdk/winarm/bin/../lib/gcc/arm-elf/4.1.1/../../../../arm-elf/lib/thumb/interwork\libm.a(s_cos.o)
                                                  ./\libdeclination.a(declination.o)
                                                  e:/asctec_arm_sdk/winarm/bin/../lib/gcc/arm-elf/4.1.1/../../../../arm-elf/lib/thumb/interwork\libc.a(dtoa.o)
__subsf3                                          e:/asctec_arm_sdk/winarm/bin/../lib/gcc/arm-elf/4.1.1/thumb/interwork\libgcc.a(_addsubsf3.o)
                                                  ./\libdeclination.a(declination.o)
__swrite                                          e:/asctec_arm_sdk/winarm/bin/../lib/gcc/arm-elf/4.1.1/../../../../arm-elf/lib/thumb/interwork\libc.a(stdio.o)
                                                  e:/asctec_arm_sdk/winarm/bin/../lib/gcc/arm-elf/4.1.1/../../../../arm-elf/lib/thumb/interwork\libc.a(findfp.o)
__swsetup                                         e:/asctec_arm_sdk/winarm/bin/../lib/gcc/arm-elf/4.1.1/../../../../arm-elf/lib/thumb/interwork\libc.a(wsetup.o)
                                                  e:/asctec_arm_sdk/winarm/bin/../lib/gcc/arm-elf/4.1.1/../../../../arm-elf/lib/thumb/interwork\libc.a(fvwrite.o)
                                                  e:/asctec_arm_sdk/winarm/bin/../lib/gcc/arm-elf/4.1.1/../../../../arm-elf/lib/thumb/interwork\libc.a(vfprintf.o)
__truncdfsf2                                      e:/asctec_arm_sdk/winarm/bin/../lib/gcc/arm-elf/4.1.1/thumb/interwork\libgcc.a(_truncdfsf2.o)
                                                  ./\libdeclination.a(declination.o)
__udivsi3                                         e:/asctec_arm_sdk/winarm/bin/../lib/gcc/arm-elf/4.1.1/thumb/interwork\libgcc.a(_udivsi3.o)
                                                  e:/asctec_arm_sdk/winarm/bin/../lib/gcc/arm-elf/4.1.1/../../../../arm-elf/lib/thumb/interwork\libc.a(dtoa.o)
                                                  e:/asctec_arm_sdk/winarm/bin/../lib/gcc/arm-elf/4.1.1/../../../../arm-elf/lib/thumb/interwork\libc.a(vfprintf.o)
                                                  adc.o
                                                  uart.o
                                                  system.o
                                                  main.o
                                                  buzzer.o
__umodsi3                                         e:/asctec_arm_sdk/winarm/bin/../lib/gcc/arm-elf/4.1.1/thumb/interwork\libgcc.a(_umodsi3.o)
                                                  e:/asctec_arm_sdk/winarm/bin/../lib/gcc/arm-elf/4.1.1/../../../../arm-elf/lib/thumb/interwork\libc.a(vfprintf.o)
_b2d                                              e:/asctec_arm_sdk/winarm/bin/../lib/gcc/arm-elf/4.1.1/../../../../arm-elf/lib/thumb/interwork\libc.a(mprec.o)
_calloc_r                                         e:/asctec_arm_sdk/winarm/bin/../lib/gcc/arm-elf/4.1.1/../../../../arm-elf/lib/thumb/interwork\libc.a(callocr.o)
                                                  e:/asctec_arm_sdk/winarm/bin/../lib/gcc/arm-elf/4.1.1/../../../../arm-elf/lib/thumb/interwork\libc.a(mprec.o)
_cleanup                                          e:/asctec_arm_sdk/winarm/bin/../lib/gcc/arm-elf/4.1.1/../../../../arm-elf/lib/thumb/interwork\libc.a(findfp.o)
_cleanup_r                                        e:/asctec_arm_sdk/winarm/bin/../lib/gcc/arm-elf/4.1.1/../../../../arm-elf/lib/thumb/interwork\libc.a(findfp.o)
                                                  e:/asctec_arm_sdk/winarm/bin/../lib/gcc/arm-elf/4.1.1/../../../../arm-elf/lib/thumb/interwork\libc.a(makebuf.o)
_close_r                                          syscalls.o
                                                  e:/asctec_arm_sdk/winarm/bin/../lib/gcc/arm-elf/4.1.1/../../../../arm-elf/lib/thumb/interwork\libc.a(stdio.o)
_d2b                                              e:/asctec_arm_sdk/winarm/bin/../lib/gcc/arm-elf/4.1.1/../../../../arm-elf/lib/thumb/interwork\libc.a(mprec.o)
                                                  e:/asctec_arm_sdk/winarm/bin/../lib/gcc/arm-elf/4.1.1/../../../../arm-elf/lib/thumb/interwork\libc.a(dtoa.o)
_data                                             Common_WinARM/src/Startup.o
_dtoa_r                                           e:/asctec_arm_sdk/winarm/bin/../lib/gcc/arm-elf/4.1.1/../../../../arm-elf/lib/thumb/interwork\libc.a(dtoa.o)
                                                  e:/asctec_arm_sdk/winarm/bin/../lib/gcc/arm-elf/4.1.1/../../../../arm-elf/lib/thumb/interwork\libc.a(vfprintf.o)
_edata                                            Common_WinARM/src/Startup.o
_end                                              syscalls.o
_etext                                            Common_WinARM/src/Startup.o
_fclose_r                                         e:/asctec_arm_sdk/winarm/bin/../lib/gcc/arm-elf/4.1.1/../../../../arm-elf/lib/thumb/interwork\libc.a(fclose.o)
_free_r                                           e:/asctec_arm_sdk/winarm/bin/../lib/gcc/arm-elf/4.1.1/../../../../arm-elf/lib/thumb/interwork\libc.a(freer.o)
                                                  e:/asctec_arm_sdk/winarm/bin/../lib/gcc/arm-elf/4.1.1/../../../../arm-elf/lib/thumb/interwork\libc.a(fclose.o)
                                                  e:/asctec_arm_sdk/winarm/bin/../lib/gcc/arm-elf/4.1.1/../../../../arm-elf/lib/thumb/interwork\libc.a(reallocr.o)
                                                  e:/asctec_arm_sdk/winarm/bin/../lib/gcc/arm-elf/4.1.1/../../../../arm-elf/lib/thumb/interwork\libc.a(mallocr.o)
                                                  e:/asctec_arm_sdk/winarm/bin/../lib/gcc/arm-elf/4.1.1/../../../../arm-elf/lib/thumb/interwork\libc.a(fvwrite.o)
                                                  e:/asctec_arm_sdk/winarm/bin/../lib/gcc/arm-elf/4.1.1/../../../../arm-elf/lib/thumb/interwork\libc.a(wsetup.o)
                                                  e:/asctec_arm_sdk/winarm/bin/../lib/gcc/arm-elf/4.1.1/../../../../arm-elf/lib/thumb/interwork\libc.a(vfprintf.o)
_fstat_r                                          syscalls.o
                                                  e:/asctec_arm_sdk/winarm/bin/../lib/gcc/arm-elf/4.1.1/../../../../arm-elf/lib/thumb/interwork\libc.a(makebuf.o)
_fwalk                                            e:/asctec_arm_sdk/winarm/bin/../lib/gcc/arm-elf/4.1.1/../../../../arm-elf/lib/thumb/interwork\libc.a(fwalk.o)
                                                  e:/asctec_arm_sdk/winarm/bin/../lib/gcc/arm-elf/4.1.1/../../../../arm-elf/lib/thumb/interwork\libc.a(findfp.o)
                                                  e:/asctec_arm_sdk/winarm/bin/../lib/gcc/arm-elf/4.1.1/../../../../arm-elf/lib/thumb/interwork\libc.a(fflush.o)
_fwalk_reent                                      e:/asctec_arm_sdk/winarm/bin/../lib/gcc/arm-elf/4.1.1/../../../../arm-elf/lib/thumb/interwork\libc.a(fwalk.o)
_global_impure_ptr                                e:/asctec_arm_sdk/winarm/bin/../lib/gcc/arm-elf/4.1.1/../../../../arm-elf/lib/thumb/interwork\libc.a(impure.o)
                                                  e:/asctec_arm_sdk/winarm/bin/../lib/gcc/arm-elf/4.1.1/../../../../arm-elf/lib/thumb/interwork\libc.a(findfp.o)
                                                  e:/asctec_arm_sdk/winarm/bin/../lib/gcc/arm-elf/4.1.1/../../../../arm-elf/lib/thumb/interwork\libc.a(fflush.o)
_hi0bits                                          e:/asctec_arm_sdk/winarm/bin/../lib/gcc/arm-elf/4.1.1/../../../../arm-elf/lib/thumb/interwork\libc.a(mprec.o)
                                                  e:/asctec_arm_sdk/winarm/bin/../lib/gcc/arm-elf/4.1.1/../../../../arm-elf/lib/thumb/interwork\libc.a(dtoa.o)
_i2b                                              e:/asctec_arm_sdk/winarm/bin/../lib/gcc/arm-elf/4.1.1/../../../../arm-elf/lib/thumb/interwork\libc.a(mprec.o)
                                                  e:/asctec_arm_sdk/winarm/bin/../lib/gcc/arm-elf/4.1.1/../../../../arm-elf/lib/thumb/interwork\libc.a(dtoa.o)
_impure_ptr                                       e:/asctec_arm_sdk/winarm/bin/../lib/gcc/arm-elf/4.1.1/../../../../arm-elf/lib/thumb/interwork\libc.a(impure.o)
                                                  e:/asctec_arm_sdk/winarm/bin/../lib/gcc/arm-elf/4.1.1/../../../../arm-elf/lib/thumb/interwork\libg.a(errno.o)
                                                  e:/asctec_arm_sdk/winarm/bin/../lib/gcc/arm-elf/4.1.1/../../../../arm-elf/lib/thumb/interwork\libc.a(fclose.o)
                                                  e:/asctec_arm_sdk/winarm/bin/../lib/gcc/arm-elf/4.1.1/../../../../arm-elf/lib/thumb/interwork\libc.a(stdio.o)
                                                  e:/asctec_arm_sdk/winarm/bin/../lib/gcc/arm-elf/4.1.1/../../../../arm-elf/lib/thumb/interwork\libc.a(makebuf.o)
                                                  e:/asctec_arm_sdk/winarm/bin/../lib/gcc/arm-elf/4.1.1/../../../../arm-elf/lib/thumb/interwork\libc.a(locale.o)
                                                  e:/asctec_arm_sdk/winarm/bin/../lib/gcc/arm-elf/4.1.1/../../../../arm-elf/lib/thumb/interwork\libc.a(fvwrite.o)
                                                  e:/asctec_arm_sdk/winarm/bin/../lib/gcc/arm-elf/4.1.1/../../../../arm-elf/lib/thumb/interwork\libc.a(findfp.o)
                                                  e:/asctec_arm_sdk/winarm/bin/../lib/gcc/arm-elf/4.1.1/../../../../arm-elf/lib/thumb/interwork\libc.a(fflush.o)
                                                  e:/asctec_arm_sdk/winarm/bin/../lib/gcc/arm-elf/4.1.1/../../../../arm-elf/lib/thumb/interwork\libc.a(wsetup.o)
                                                  e:/asctec_arm_sdk/winarm/bin/../lib/gcc/arm-elf/4.1.1/../../../../arm-elf/lib/thumb/interwork\libc.a(wcsrtombs.o)
                                                  e:/asctec_arm_sdk/winarm/bin/../lib/gcc/arm-elf/4.1.1/../../../../arm-elf/lib/thumb/interwork\libc.a(wcrtomb.o)
                                                  e:/asctec_arm_sdk/winarm/bin/../lib/gcc/arm-elf/4.1.1/../../../../arm-elf/lib/thumb/interwork\libc.a(vfprintf.o)
                                                  e:/asctec_arm_sdk/winarm/bin/../lib/gcc/arm-elf/4.1.1/../../../../arm-elf/lib/thumb/interwork\libc.a(sprintf.o)
                                                  e:/asctec_arm_sdk/winarm/bin/../lib/gcc/arm-elf/4.1.1/../../../../arm-elf/lib/thumb/interwork\libc.a(puts.o)
                                                  e:/asctec_arm_sdk/winarm/bin/../lib/gcc/arm-elf/4.1.1/../../../../arm-elf/lib/thumb/interwork\libc.a(printf.o)
_lo0bits                                          e:/asctec_arm_sdk/winarm/bin/../lib/gcc/arm-elf/4.1.1/../../../../arm-elf/lib/thumb/interwork\libc.a(mprec.o)
_localeconv_r                                     e:/asctec_arm_sdk/winarm/bin/../lib/gcc/arm-elf/4.1.1/../../../../arm-elf/lib/thumb/interwork\libc.a(locale.o)
_lseek_r                                          syscalls.o
                                                  e:/asctec_arm_sdk/winarm/bin/../lib/gcc/arm-elf/4.1.1/../../../../arm-elf/lib/thumb/interwork\libc.a(stdio.o)
_lshift                                           e:/asctec_arm_sdk/winarm/bin/../lib/gcc/arm-elf/4.1.1/../../../../arm-elf/lib/thumb/interwork\libc.a(mprec.o)
                                                  e:/asctec_arm_sdk/winarm/bin/../lib/gcc/arm-elf/4.1.1/../../../../arm-elf/lib/thumb/interwork\libc.a(dtoa.o)
_malloc_r                                         e:/asctec_arm_sdk/winarm/bin/../lib/gcc/arm-elf/4.1.1/../../../../arm-elf/lib/thumb/interwork\libc.a(mallocr.o)
                                                  e:/asctec_arm_sdk/winarm/bin/../lib/gcc/arm-elf/4.1.1/../../../../arm-elf/lib/thumb/interwork\libc.a(callocr.o)
                                                  e:/asctec_arm_sdk/winarm/bin/../lib/gcc/arm-elf/4.1.1/../../../../arm-elf/lib/thumb/interwork\libc.a(reallocr.o)
                                                  e:/asctec_arm_sdk/winarm/bin/../lib/gcc/arm-elf/4.1.1/../../../../arm-elf/lib/thumb/interwork\libc.a(makebuf.o)
                                                  e:/asctec_arm_sdk/winarm/bin/../lib/gcc/arm-elf/4.1.1/../../../../arm-elf/lib/thumb/interwork\libc.a(findfp.o)
                                                  e:/asctec_arm_sdk/winarm/bin/../lib/gcc/arm-elf/4.1.1/../../../../arm-elf/lib/thumb/interwork\libc.a(vfprintf.o)
_malloc_trim_r                                    e:/asctec_arm_sdk/winarm/bin/../lib/gcc/arm-elf/4.1.1/../../../../arm-elf/lib/thumb/interwork\libc.a(freer.o)
_mprec_log10                                      e:/asctec_arm_sdk/winarm/bin/../lib/gcc/arm-elf/4.1.1/../../../../arm-elf/lib/thumb/interwork\libc.a(mprec.o)
_multadd                                          e:/asctec_arm_sdk/winarm/bin/../lib/gcc/arm-elf/4.1.1/../../../../arm-elf/lib/thumb/interwork\libc.a(mprec.o)
                                                  e:/asctec_arm_sdk/winarm/bin/../lib/gcc/arm-elf/4.1.1/../../../../arm-elf/lib/thumb/interwork\libc.a(dtoa.o)
_multiply                                         e:/asctec_arm_sdk/winarm/bin/../lib/gcc/arm-elf/4.1.1/../../../../arm-elf/lib/thumb/interwork\libc.a(mprec.o)
                                                  e:/asctec_arm_sdk/winarm/bin/../lib/gcc/arm-elf/4.1.1/../../../../arm-elf/lib/thumb/interwork\libc.a(dtoa.o)
_pow5mult                                         e:/asctec_arm_sdk/winarm/bin/../lib/gcc/arm-elf/4.1.1/../../../../arm-elf/lib/thumb/interwork\libc.a(mprec.o)
                                                  e:/asctec_arm_sdk/winarm/bin/../lib/gcc/arm-elf/4.1.1/../../../../arm-elf/lib/thumb/interwork\libc.a(dtoa.o)
_printf_r                                         e:/asctec_arm_sdk/winarm/bin/../lib/gcc/arm-elf/4.1.1/../../../../arm-elf/lib/thumb/interwork\libc.a(printf.o)
_puts_r                                           e:/asctec_arm_sdk/winarm/bin/../lib/gcc/arm-elf/4.1.1/../../../../arm-elf/lib/thumb/interwork\libc.a(puts.o)
_ratio                                            e:/asctec_arm_sdk/winarm/bin/../lib/gcc/arm-elf/4.1.1/../../../../arm-elf/lib/thumb/interwork\libc.a(mprec.o)
_read_r                                           syscalls.o
                                                  e:/asctec_arm_sdk/winarm/bin/../lib/gcc/arm-elf/4.1.1/../../../../arm-elf/lib/thumb/interwork\libc.a(stdio.o)
_realloc_r                                        e:/asctec_arm_sdk/winarm/bin/../lib/gcc/arm-elf/4.1.1/../../../../arm-elf/lib/thumb/interwork\libc.a(reallocr.o)
                                                  e:/asctec_arm_sdk/winarm/bin/../lib/gcc/arm-elf/4.1.1/../../../../arm-elf/lib/thumb/interwork\libc.a(fvwrite.o)
_s2b                                              e:/asctec_arm_sdk/winarm/bin/../lib/gcc/arm-elf/4.1.1/../../../../arm-elf/lib/thumb/interwork\libc.a(mprec.o)
_sbrk_r                                           syscalls.o
                                                  e:/asctec_arm_sdk/winarm/bin/../lib/gcc/arm-elf/4.1.1/../../../../arm-elf/lib/thumb/interwork\libc.a(mallocr.o)
                                                  e:/asctec_arm_sdk/winarm/bin/../lib/gcc/arm-elf/4.1.1/../../../../arm-elf/lib/thumb/interwork\libc.a(freer.o)
_setlocale_r                                      e:/asctec_arm_sdk/winarm/bin/../lib/gcc/arm-elf/4.1.1/../../../../arm-elf/lib/thumb/interwork\libc.a(locale.o)
_sprintf_r                                        e:/asctec_arm_sdk/winarm/bin/../lib/gcc/arm-elf/4.1.1/../../../../arm-elf/lib/thumb/interwork\libc.a(sprintf.o)
_ulp                                              e:/asctec_arm_sdk/winarm/bin/../lib/gcc/arm-elf/4.1.1/../../../../arm-elf/lib/thumb/interwork\libc.a(mprec.o)
_vfprintf_r                                       e:/asctec_arm_sdk/winarm/bin/../lib/gcc/arm-elf/4.1.1/../../../../arm-elf/lib/thumb/interwork\libc.a(vfprintf.o)
                                                  e:/asctec_arm_sdk/winarm/bin/../lib/gcc/arm-elf/4.1.1/../../../../arm-elf/lib/thumb/interwork\libc.a(sprintf.o)
                                                  e:/asctec_arm_sdk/winarm/bin/../lib/gcc/arm-elf/4.1.1/../../../../arm-elf/lib/thumb/interwork\libc.a(printf.o)
_wcrtomb_r                                        e:/asctec_arm_sdk/winarm/bin/../lib/gcc/arm-elf/4.1.1/../../../../arm-elf/lib/thumb/interwork\libc.a(wcrtomb.o)
                                                  e:/asctec_arm_sdk/winarm/bin/../lib/gcc/arm-elf/4.1.1/../../../../arm-elf/lib/thumb/interwork\libc.a(wcsrtombs.o)
                                                  e:/asctec_arm_sdk/winarm/bin/../lib/gcc/arm-elf/4.1.1/../../../../arm-elf/lib/thumb/interwork\libc.a(vfprintf.o)
_wcsrtombs_r                                      e:/asctec_arm_sdk/winarm/bin/../lib/gcc/arm-elf/4.1.1/../../../../arm-elf/lib/thumb/interwork\libc.a(wcsrtombs.o)
                                                  e:/asctec_arm_sdk/winarm/bin/../lib/gcc/arm-elf/4.1.1/../../../../arm-elf/lib/thumb/interwork\libc.a(vfprintf.o)
_wctomb_r                                         e:/asctec_arm_sdk/winarm/bin/../lib/gcc/arm-elf/4.1.1/../../../../arm-elf/lib/thumb/interwork\libc.a(wctomb_r.o)
                                                  e:/asctec_arm_sdk/winarm/bin/../lib/gcc/arm-elf/4.1.1/../../../../arm-elf/lib/thumb/interwork\libc.a(wcrtomb.o)
_write_r                                          syscalls.o
                                                  e:/asctec_arm_sdk/winarm/bin/../lib/gcc/arm-elf/4.1.1/../../../../arm-elf/lib/thumb/interwork\libc.a(stdio.o)
aciAddDatatoFlashCallback                         asctecCommIntfOnboard.o
aciCmdPacketContentBuffer                         asctecCommIntfOnboard.o
aciCmdPacketContentBufferInvalidCnt               asctecCommIntfOnboard.o
aciCmdPacketContentBufferLength                   asctecCommIntfOnboard.o
aciCmdPacketContentBufferValid                    asctecCommIntfOnboard.o
aciCmdPacketMagicCode                             asctecCommIntfOnboard.o
aciCmdPacketReceived                              asctecCommIntfOnboard.o
aciCmdPacketSelect                                asctecCommIntfOnboard.o
aciCmdPacketSelectLength                          asctecCommIntfOnboard.o
aciCmdPacketSendAck                               asctecCommIntfOnboard.o
aciCmdPacketWithACK                               asctecCommIntfOnboard.o
aciCrcUpdate                                      asctecCommIntfOnboard.o
aciEngine                                         asctecCommIntfOnboard.o
                                                  main.o
                                                  sdk.o
aciEngineRate                                     asctecCommIntfOnboard.o
aciEngineRateCounter                              asctecCommIntfOnboard.o
aciHeartBeatCnt                                   asctecCommIntfOnboard.o
aciHeartBeatTimeout                               asctecCommIntfOnboard.o
aciInhibitPacketTransmission                      asctecCommIntfOnboard.o
aciInit                                           asctecCommIntfOnboard.o
                                                  main.o
aciListCmd                                        asctecCommIntfOnboard.o
aciListCmdCount                                   asctecCommIntfOnboard.o
aciListPar                                        asctecCommIntfOnboard.o
                                                  lpc_aci_eeprom.o
aciListParCount                                   asctecCommIntfOnboard.o
                                                  lpc_aci_eeprom.o
aciListVar                                        asctecCommIntfOnboard.o
aciListVarCount                                   asctecCommIntfOnboard.o
aciMagicCodeCmd                                   asctecCommIntfOnboard.o
aciMagicCodePar                                   asctecCommIntfOnboard.o
aciMagicCodeVar                                   asctecCommIntfOnboard.o
aciParPacketContentBuffer                         asctecCommIntfOnboard.o
aciParPacketContentBufferInvalidCnt               asctecCommIntfOnboard.o
aciParPacketContentBufferLength                   asctecCommIntfOnboard.o
aciParPacketContentBufferValid                    asctecCommIntfOnboard.o
aciParPacketMagicCode                             asctecCommIntfOnboard.o
aciParPacketRequest                               asctecCommIntfOnboard.o
aciParPacketSelect                                asctecCommIntfOnboard.o
aciParPacketSelectLength                          asctecCommIntfOnboard.o
aciParPacketSendAck                               asctecCommIntfOnboard.o
aciParamPacketReceived                            asctecCommIntfOnboard.o
aciParamSaveIt                                    asctecCommIntfOnboard.o
aciPublishCommandInt                              asctecCommIntfOnboard.o
                                                  main.o
aciPublishParameterInt                            asctecCommIntfOnboard.o
                                                  main.o
aciPublishVariableInt                             asctecCommIntfOnboard.o
                                                  main.o
aciReadDatafromFlashCallback                      asctecCommIntfOnboard.o
aciReadParafromFlashCallback                      asctecCommIntfOnboard.o
aciReadWriteEndCallback                           asctecCommIntfOnboard.o
aciReadWriteStartCallback                         asctecCommIntfOnboard.o
aciReceiveHandler                                 asctecCommIntfOnboard.o
                                                  uart.o
aciRxDataBuffer                                   asctecCommIntfOnboard.o
aciRxDataCnt                                      asctecCommIntfOnboard.o
aciRxHandleMessage                                asctecCommIntfOnboard.o
aciSaveParaCallback                               asctecCommIntfOnboard.o
aciSendSingleBuffer                               asctecCommIntfOnboard.o
aciSendSingleBufferCnt                            asctecCommIntfOnboard.o
aciSendSingleCount                                asctecCommIntfOnboard.o
aciSendSingleId                                   asctecCommIntfOnboard.o
aciSendSingleNextBufferCount                      asctecCommIntfOnboard.o
aciSendSingleStatus                               asctecCommIntfOnboard.o
aciSendSingleVarType                              asctecCommIntfOnboard.o
aciSendSingleWithAck                              asctecCommIntfOnboard.o
aciSendVar                                        asctecCommIntfOnboard.o
aciSetReadParafromFlashCallback                   asctecCommIntfOnboard.o
                                                  lpc_aci_eeprom.o
aciSetSaveParaCallback                            asctecCommIntfOnboard.o
                                                  lpc_aci_eeprom.o
aciSetStartTxCallback                             asctecCommIntfOnboard.o
                                                  main.o
aciSetWriteParatoFlashCallback                    asctecCommIntfOnboard.o
                                                  lpc_aci_eeprom.o
aciSingleSend                                     asctecCommIntfOnboard.o
aciStartTxCallback                                asctecCommIntfOnboard.o
aciSyncCmd                                        asctecCommIntfOnboard.o
                                                  main.o
                                                  sdk.o
aciSyncPar                                        asctecCommIntfOnboard.o
                                                  main.o
                                                  sdk.o
aciSyncVar                                        asctecCommIntfOnboard.o
                                                  main.o
                                                  sdk.o
aciTxRingBuffer                                   asctecCommIntfOnboard.o
aciTxRingBufferAddData                            asctecCommIntfOnboard.o
aciTxRingBufferByteAvailable                      asctecCommIntfOnboard.o
                                                  uart.o
aciTxRingBufferGetFreeSpace                       asctecCommIntfOnboard.o
aciTxRingBufferGetNextByte                        asctecCommIntfOnboard.o
                                                  uart.o
aciTxRingBufferReadPtr                            asctecCommIntfOnboard.o
aciTxRingBufferReset                              asctecCommIntfOnboard.o
aciTxRingBufferWritePtr                           asctecCommIntfOnboard.o
aciTxSendPacket                                   asctecCommIntfOnboard.o
aciUpdateCrc16                                    asctecCommIntfOnboard.o
aciVarPacketContentBuffer                         asctecCommIntfOnboard.o
aciVarPacketContentBufferLength                   asctecCommIntfOnboard.o
aciVarPacketCurrentSize                           asctecCommIntfOnboard.o
aciVarPacketMagicCode                             asctecCommIntfOnboard.o
aciVarPacketNumberOfVars                          asctecCommIntfOnboard.o
aciVarPacketPtrList                               asctecCommIntfOnboard.o
aciVarPacketSelect                                asctecCommIntfOnboard.o
aciVarPacketSelectLength                          asctecCommIntfOnboard.o
aciVarPacketTransmissionRate                      asctecCommIntfOnboard.o
aciVarPacketTypeList                              asctecCommIntfOnboard.o
aciVarPacketUpdated                               asctecCommIntfOnboard.o
aciWriteParatoFlashCallback                       asctecCommIntfOnboard.o
adcChannelValues                                  adc.o
                                                  main.o
anz_param_saved                                   lpc_aci_eeprom.o
atan                                              e:/asctec_arm_sdk/winarm/bin/../lib/gcc/arm-elf/4.1.1/../../../../arm-elf/lib/thumb/interwork\libm.a(s_atan.o)
                                                  e:/asctec_arm_sdk/winarm/bin/../lib/gcc/arm-elf/4.1.1/../../../../arm-elf/lib/thumb/interwork\libm.a(e_atan2.o)
atan2                                             e:/asctec_arm_sdk/winarm/bin/../lib/gcc/arm-elf/4.1.1/../../../../arm-elf/lib/thumb/interwork\libm.a(w_atan2.o)
                                                  ./\libdeclination.a(declination.o)
baudrate1_change                                  uart.o
buildInfo                                         buildInfoSetup.o
                                                  LL_HL_comm.o
buzzer                                            buzzer.o
                                                  main.o
buzzer_handler                                    buzzer.o
                                                  main.o
buzzer_warnings                                   buzzer.o
byte_read                                         sdk.o
chksum_to_check                                   uart.o
chksum_trigger                                    uart.o
cnt                                               main.o
content                                           lpc_aci_eeprom.o
copysign                                          e:/asctec_arm_sdk/winarm/bin/../lib/gcc/arm-elf/4.1.1/../../../../arm-elf/lib/thumb/interwork\libm.a(s_copysign.o)
                                                  e:/asctec_arm_sdk/winarm/bin/../lib/gcc/arm-elf/4.1.1/../../../../arm-elf/lib/thumb/interwork\libm.a(s_scalbn.o)
cos                                               e:/asctec_arm_sdk/winarm/bin/../lib/gcc/arm-elf/4.1.1/../../../../arm-elf/lib/thumb/interwork\libm.a(s_cos.o)
                                                  ./\libdeclination.a(declination.o)
                                                  gpsmath.o
crc16                                             uart.o
crc_update                                        uart.o
current_chksum                                    uart.o
data_requested                                    uart.o
data_sent_to_HL                                   ssp.o
data_sent_to_LL                                   ssp.o
                                                  LL_HL_comm.o
declinationAvailable                              ./\libdeclination.a(declination.o)
                                                  main.o
                                                  LL_HL_comm.o
delay                                             system.o
ee_count                                          LPC2k_ee.o
ee_erase                                          LPC2k_ee.o
                                                  lpc_aci_eeprom.o
ee_locate                                         LPC2k_ee.o
ee_read                                           LPC2k_ee.o
ee_readn                                          LPC2k_ee.o
                                                  lpc_aci_eeprom.o
ee_write                                          LPC2k_ee.o
                                                  lpc_aci_eeprom.o
emergencyMode                                     sdk_telemetry.o
                                                  sdk.o
                                                  LL_HL_comm.o
emergencyModeUpdate                               sdk.o
                                                  LL_HL_comm.o
enter_isp                                         LPC2k_ee.o
                                                  uart.o
entry_exist                                       asctecCommIntfOnboard.o
estimatedDeclination                              ./\libdeclination.a(declination.o)
                                                  main.o
                                                  LL_HL_comm.o
estimatedInclination                              ./\libdeclination.a(declination.o)
                                                  LL_HL_comm.o
fabs                                              e:/asctec_arm_sdk/winarm/bin/../lib/gcc/arm-elf/4.1.1/../../../../arm-elf/lib/thumb/interwork\libm.a(s_fabs.o)
                                                  e:/asctec_arm_sdk/winarm/bin/../lib/gcc/arm-elf/4.1.1/../../../../arm-elf/lib/thumb/interwork\libm.a(s_atan.o)
                                                  e:/asctec_arm_sdk/winarm/bin/../lib/gcc/arm-elf/4.1.1/../../../../arm-elf/lib/thumb/interwork\libm.a(e_rem_pio2.o)
                                                  e:/asctec_arm_sdk/winarm/bin/../lib/gcc/arm-elf/4.1.1/../../../../arm-elf/lib/thumb/interwork\libm.a(e_atan2.o)
fast_abs                                          mymath.o
fast_sqrt                                         mymath.o
                                                  sdk_telemetry.o
fclose                                            e:/asctec_arm_sdk/winarm/bin/../lib/gcc/arm-elf/4.1.1/../../../../arm-elf/lib/thumb/interwork\libc.a(fclose.o)
                                                  e:/asctec_arm_sdk/winarm/bin/../lib/gcc/arm-elf/4.1.1/../../../../arm-elf/lib/thumb/interwork\libc.a(findfp.o)
fflush                                            e:/asctec_arm_sdk/winarm/bin/../lib/gcc/arm-elf/4.1.1/../../../../arm-elf/lib/thumb/interwork\libc.a(fflush.o)
                                                  e:/asctec_arm_sdk/winarm/bin/../lib/gcc/arm-elf/4.1.1/../../../../arm-elf/lib/thumb/interwork\libc.a(fclose.o)
                                                  e:/asctec_arm_sdk/winarm/bin/../lib/gcc/arm-elf/4.1.1/../../../../arm-elf/lib/thumb/interwork\libc.a(fvwrite.o)
                                                  e:/asctec_arm_sdk/winarm/bin/../lib/gcc/arm-elf/4.1.1/../../../../arm-elf/lib/thumb/interwork\libc.a(vfprintf.o)
fireFlyLedHandler                                 i2c1.o
                                                  main.o
fireflyLedEnabled                                 main.o
                                                  LL_HL_comm.o
floor                                             e:/asctec_arm_sdk/winarm/bin/../lib/gcc/arm-elf/4.1.1/../../../../arm-elf/lib/thumb/interwork\libm.a(s_floor.o)
                                                  e:/asctec_arm_sdk/winarm/bin/../lib/gcc/arm-elf/4.1.1/../../../../arm-elf/lib/thumb/interwork\libm.a(k_rem_pio2.o)
generateBuildInfo                                 buildInfoSetup.o
                                                  main.o
geomag                                            ./\libdeclination.a(declination.o)
geomg1                                            ./\libdeclination.a(declination.o)
getDeclination                                    ./\libdeclination.a(declination.o)
                                                  main.o
gpsDataOkTrigger                                  gpsmath.o
                                                  ./\libublox.a(ublox.o)
                                                  LL_HL_comm.o
gpsHardwareStatus                                 ./\libublox.a(ublox.o)
gpsLEDTrigger                                     ./\libublox.a(ublox.o)
                                                  main.o
gps_data_temp                                     gpsmath.o
iap_entry                                         LPC2k_ee.o
init                                              system.o
                                                  main.o
init_VIC                                          Common_WinARM/src/irq.o
                                                  system.o
init_interrupts                                   system.o
init_ports                                        system.o
init_spi                                          system.o
init_spi1                                         system.o
init_timer0                                       system.o
install_irq                                       Common_WinARM/src/irq.o
                                                  i2c1.o
                                                  system.o
int_cnt                                           main.o
isatty                                            syscalls.o
                                                  e:/asctec_arm_sdk/winarm/bin/../lib/gcc/arm-elf/4.1.1/../../../../arm-elf/lib/thumb/interwork\libc.a(makebuf.o)
isinf                                             e:/asctec_arm_sdk/winarm/bin/../lib/gcc/arm-elf/4.1.1/../../../../arm-elf/lib/thumb/interwork\libc.a(s_isinf.o)
                                                  e:/asctec_arm_sdk/winarm/bin/../lib/gcc/arm-elf/4.1.1/../../../../arm-elf/lib/thumb/interwork\libc.a(vfprintf.o)
isnan                                             e:/asctec_arm_sdk/winarm/bin/../lib/gcc/arm-elf/4.1.1/../../../../arm-elf/lib/thumb/interwork\libc.a(s_isnan.o)
                                                  e:/asctec_arm_sdk/winarm/bin/../lib/gcc/arm-elf/4.1.1/../../../../arm-elf/lib/thumb/interwork\libm.a(w_sqrt.o)
                                                  e:/asctec_arm_sdk/winarm/bin/../lib/gcc/arm-elf/4.1.1/../../../../arm-elf/lib/thumb/interwork\libm.a(w_atan2.o)
                                                  e:/asctec_arm_sdk/winarm/bin/../lib/gcc/arm-elf/4.1.1/../../../../arm-elf/lib/thumb/interwork\libc.a(vfprintf.o)
jetiActivateValue                                 jetiTelemetry.o
jetiAlarm                                         jetiTelemetry.o
                                                  LL_HL_comm.o
jetiAlarmType                                     jetiTelemetry.o
                                                  LL_HL_comm.o
jetiCheckForKeyChange                             jetiTelemetry.o
                                                  sdk_telemetry.o
jetiDeactivateValue                               jetiTelemetry.o
jetiDisplayText                                   jetiTelemetry.o
                                                  LL_HL_comm.o
jetiInitValue                                     jetiTelemetry.o
                                                  sdk_telemetry.o
jetiKey                                           jetiTelemetry.o
jetiKeyChanged                                    jetiTelemetry.o
jetiName                                          jetiTelemetry.o
                                                  LL_HL_comm.o
jetiSetAlarm                                      jetiTelemetry.o
                                                  sdk_telemetry.o
jetiSetDecimalPoint                               jetiTelemetry.o
                                                  sdk_telemetry.o
jetiSetDeviceName                                 jetiTelemetry.o
                                                  sdk_telemetry.o
jetiSetKeyChanged                                 jetiTelemetry.o
                                                  LL_HL_comm.o
jetiSetTextDisplay                                jetiTelemetry.o
                                                  sdk_telemetry.o
jetiSetValue14B                                   jetiTelemetry.o
                                                  sdk_telemetry.o
jetiSetValue22B                                   jetiTelemetry.o
                                                  sdk_telemetry.o
jetiSetValue30B                                   jetiTelemetry.o
jetiSetValue6B                                    jetiTelemetry.o
                                                  sdk_telemetry.o
jetiSetValueDate                                  jetiTelemetry.o
jetiSetValueTime                                  jetiTelemetry.o
jetiTriggerTextSync                               jetiTelemetry.o
                                                  LL_HL_comm.o
jetiValues                                        jetiTelemetry.o
                                                  LL_HL_comm.o
laser_distance                                    main.o
                                                  sdk.o
laser_measurement                                 sdk.o
lastI2c1Error                                     i2c1.o
last_bit                                          sdk.o
localeconv                                        e:/asctec_arm_sdk/winarm/bin/../lib/gcc/arm-elf/4.1.1/../../../../arm-elf/lib/thumb/interwork\libc.a(locale.o)
                                                  e:/asctec_arm_sdk/winarm/bin/../lib/gcc/arm-elf/4.1.1/../../../../arm-elf/lib/thumb/interwork\libc.a(vfprintf.o)
lpc_aci_ReadParafromFlash                         lpc_aci_eeprom.o
                                                  main.o
lpc_aci_SavePara                                  lpc_aci_eeprom.o
                                                  pelican_ptu.o
lpc_aci_WriteParatoFlash                          lpc_aci_eeprom.o
                                                  pelican_ptu.o
lpc_aci_init                                      lpc_aci_eeprom.o
                                                  main.o
main                                              main.o
                                                  Common_WinARM/src/Startup.o
mainloop                                          main.o
mainloop_cnt                                      main.o
mainloop_overflows                                main.o
mainloop_trigger                                  main.o
matherr                                           e:/asctec_arm_sdk/winarm/bin/../lib/gcc/arm-elf/4.1.1/../../../../arm-elf/lib/thumb/interwork\libm.a(s_matherr.o)
                                                  e:/asctec_arm_sdk/winarm/bin/../lib/gcc/arm-elf/4.1.1/../../../../arm-elf/lib/thumb/interwork\libm.a(w_sqrt.o)
                                                  e:/asctec_arm_sdk/winarm/bin/../lib/gcc/arm-elf/4.1.1/../../../../arm-elf/lib/thumb/interwork\libm.a(w_atan2.o)
memchr                                            e:/asctec_arm_sdk/winarm/bin/../lib/gcc/arm-elf/4.1.1/../../../../arm-elf/lib/thumb/interwork\libc.a(memchr.o)
                                                  e:/asctec_arm_sdk/winarm/bin/../lib/gcc/arm-elf/4.1.1/../../../../arm-elf/lib/thumb/interwork\libc.a(fvwrite.o)
                                                  e:/asctec_arm_sdk/winarm/bin/../lib/gcc/arm-elf/4.1.1/../../../../arm-elf/lib/thumb/interwork\libc.a(vfprintf.o)
memcpy                                            e:/asctec_arm_sdk/winarm/bin/../lib/gcc/arm-elf/4.1.1/../../../../arm-elf/lib/thumb/interwork\libc.a(memcpy.o)
                                                  ./\libublox.a(ublox.o)
                                                  e:/asctec_arm_sdk/winarm/bin/../lib/gcc/arm-elf/4.1.1/../../../../arm-elf/lib/thumb/interwork\libc.a(mprec.o)
                                                  e:/asctec_arm_sdk/winarm/bin/../lib/gcc/arm-elf/4.1.1/../../../../arm-elf/lib/thumb/interwork\libc.a(dtoa.o)
                                                  jetiTelemetry.o
                                                  buildInfoSetup.o
                                                  asctecCommIntfOnboard.o
                                                  lpc_aci_eeprom.o
                                                  LL_HL_comm.o
memmove                                           e:/asctec_arm_sdk/winarm/bin/../lib/gcc/arm-elf/4.1.1/../../../../arm-elf/lib/thumb/interwork\libc.a(memmove.o)
                                                  e:/asctec_arm_sdk/winarm/bin/../lib/gcc/arm-elf/4.1.1/../../../../arm-elf/lib/thumb/interwork\libc.a(reallocr.o)
                                                  e:/asctec_arm_sdk/winarm/bin/../lib/gcc/arm-elf/4.1.1/../../../../arm-elf/lib/thumb/interwork\libc.a(fvwrite.o)
memset                                            e:/asctec_arm_sdk/winarm/bin/../lib/gcc/arm-elf/4.1.1/../../../../arm-elf/lib/thumb/interwork\libc.a(memset.o)
                                                  e:/asctec_arm_sdk/winarm/bin/../lib/gcc/arm-elf/4.1.1/../../../../arm-elf/lib/thumb/interwork\libc.a(callocr.o)
                                                  e:/asctec_arm_sdk/winarm/bin/../lib/gcc/arm-elf/4.1.1/../../../../arm-elf/lib/thumb/interwork\libc.a(findfp.o)
                                                  e:/asctec_arm_sdk/winarm/bin/../lib/gcc/arm-elf/4.1.1/../../../../arm-elf/lib/thumb/interwork\libc.a(vfprintf.o)
packets                                           uart.o
peripheralClockFrequency                          system.o
                                                  uart.o
pll_feed                                          system.o
pll_init                                          system.o
pollMessageRate                                   ./\libublox.a(ublox.o)
printf                                            e:/asctec_arm_sdk/winarm/bin/../lib/gcc/arm-elf/4.1.1/../../../../arm-elf/lib/thumb/interwork\libc.a(printf.o)
                                                  i2c.o
processorClockFrequency                           system.o
puts                                              e:/asctec_arm_sdk/winarm/bin/../lib/gcc/arm-elf/4.1.1/../../../../arm-elf/lib/thumb/interwork\libc.a(puts.o)
                                                  i2c.o
read_byte                                         i2c.o
ringbuffer                                        uart.o
                                                  main.o
ringbuffer1                                       uart.o
satInfo                                           ./\libublox.a(ublox.o)
scalbn                                            e:/asctec_arm_sdk/winarm/bin/../lib/gcc/arm-elf/4.1.1/../../../../arm-elf/lib/thumb/interwork\libm.a(s_scalbn.o)
                                                  e:/asctec_arm_sdk/winarm/bin/../lib/gcc/arm-elf/4.1.1/../../../../arm-elf/lib/thumb/interwork\libm.a(k_rem_pio2.o)
send_buffer                                       uart.o
setMessageRate                                    ./\libublox.a(ublox.o)
setlocale                                         e:/asctec_arm_sdk/winarm/bin/../lib/gcc/arm-elf/4.1.1/../../../../arm-elf/lib/thumb/interwork\libc.a(locale.o)
sin                                               e:/asctec_arm_sdk/winarm/bin/../lib/gcc/arm-elf/4.1.1/../../../../arm-elf/lib/thumb/interwork\libm.a(s_sin.o)
                                                  ./\libdeclination.a(declination.o)
sprintf                                           e:/asctec_arm_sdk/winarm/bin/../lib/gcc/arm-elf/4.1.1/../../../../arm-elf/lib/thumb/interwork\libc.a(sprintf.o)
                                                  sdk_telemetry.o
sqrt                                              e:/asctec_arm_sdk/winarm/bin/../lib/gcc/arm-elf/4.1.1/../../../../arm-elf/lib/thumb/interwork\libm.a(w_sqrt.o)
                                                  ./\libdeclination.a(declination.o)
startstring                                       uart.o
stopstring                                        uart.o
strcmp                                            e:/asctec_arm_sdk/winarm/bin/../lib/gcc/arm-elf/4.1.1/../../../../arm-elf/lib/thumb/interwork\libc.a(strcmp.o)
                                                  e:/asctec_arm_sdk/winarm/bin/../lib/gcc/arm-elf/4.1.1/../../../../arm-elf/lib/thumb/interwork\libc.a(locale.o)
                                                  e:/asctec_arm_sdk/winarm/bin/../lib/gcc/arm-elf/4.1.1/../../../../arm-elf/lib/thumb/interwork\libc.a(wctomb_r.o)
strcpy                                            e:/asctec_arm_sdk/winarm/bin/../lib/gcc/arm-elf/4.1.1/../../../../arm-elf/lib/thumb/interwork\libc.a(strcpy.o)
                                                  asctecCommIntfOnboard.o
strlen                                            e:/asctec_arm_sdk/winarm/bin/../lib/gcc/arm-elf/4.1.1/../../../../arm-elf/lib/thumb/interwork\libc.a(strlen.o)
                                                  e:/asctec_arm_sdk/winarm/bin/../lib/gcc/arm-elf/4.1.1/../../../../arm-elf/lib/thumb/interwork\libc.a(wctomb_r.o)
                                                  e:/asctec_arm_sdk/winarm/bin/../lib/gcc/arm-elf/4.1.1/../../../../arm-elf/lib/thumb/interwork\libc.a(vfprintf.o)
                                                  e:/asctec_arm_sdk/winarm/bin/../lib/gcc/arm-elf/4.1.1/../../../../arm-elf/lib/thumb/interwork\libc.a(puts.o)
                                                  asctecCommIntfOnboard.o
timer0ISR                                         main.o
                                                  system.o
transmission1_running                             uart.o
transmission_running                              uart.o
                                                  main.o
transmitBuildInfoTrigger                          LL_HL_comm.o
                                                  main.o
trigger_cnt                                       main.o
trigger_transmission                              uart.o
                                                  main.o
tx_buff                                           uart.o
uBloxHandleMessage                                ./\libublox.a(ublox.o)
uBloxReceiveEngine                                ./\libublox.a(ublox.o)
                                                  main.o
uBloxReceiveHandler                               ./\libublox.a(ublox.o)
                                                  uart.o
uBloxResetConfiguration                           ./\libublox.a(ublox.o)
uBloxSendMessage                                  ./\libublox.a(ublox.o)
uart0ISR                                          uart.o
                                                  system.o
uart1ISR                                          uart.o
                                                  system.o
uart_cnt                                          uart.o
                                                  main.o
ubloxVersion                                      ./\libublox.a(ublox.o)
uninstall_irq                                     Common_WinARM/src/irq.o
urAckClass                                        ./\libublox.a(ublox.o)
urAckId                                           ./\libublox.a(ublox.o)
urAckReceived                                     ./\libublox.a(ublox.o)
urCfgIdList                                       ./\libublox.a(ublox.o)
urConfigCnt                                       ./\libublox.a(ublox.o)
urConfigMessageReceived                           ./\libublox.a(ublox.o)
urMsgCnt                                          ./\libublox.a(ublox.o)
urRecData                                         ./\libublox.a(ublox.o)
urTimeCnt                                         ./\libublox.a(ublox.o)
urVersionCheck                                    ./\libublox.a(ublox.o)
vfprintf                                          e:/asctec_arm_sdk/winarm/bin/../lib/gcc/arm-elf/4.1.1/../../../../arm-elf/lib/thumb/interwork\libc.a(vfprintf.o)
                                                  e:/asctec_arm_sdk/winarm/bin/../lib/gcc/arm-elf/4.1.1/../../../../arm-elf/lib/thumb/interwork\libc.a(printf.o)
wcrtomb                                           e:/asctec_arm_sdk/winarm/bin/../lib/gcc/arm-elf/4.1.1/../../../../arm-elf/lib/thumb/interwork\libc.a(wcrtomb.o)
wcsrtombs                                         e:/asctec_arm_sdk/winarm/bin/../lib/gcc/arm-elf/4.1.1/../../../../arm-elf/lib/thumb/interwork\libc.a(wcsrtombs.o)
wpCtrlAckTrigger                                  LL_HL_comm.o
                                                  sdk.o
wpCtrlDistToWp                                    LL_HL_comm.o
                                                  sdk_telemetry.o
wpCtrlNavStatus                                   LL_HL_comm.o
                                                  sdk.o
wpCtrlWpCmd                                       LL_HL_comm.o
                                                  sdk.o
wpCtrlWpCmdUpdated                                LL_HL_comm.o
                                                  sdk.o
wpExampleActive                                   sdk.o
                                                  sdk_telemetry.o
wpExampleWpNr                                     sdk.o
                                                  sdk_telemetry.o
wpToLL                                            sdk.o
                                                  LL_HL_comm.o
write_byte                                        i2c.o
xy2latlon                                         gpsmath.o
                                                  sdk.o
